---
triple:          'arm64-apple-darwin'
binary-path:     '/Users/youjin/Documents/GitHub/BOJ/20937/20937'
relocations:
  - { offsetInCU: 0x26, offset: 0x26, size: 0x8, addend: 0x0, symName: _main, symObjAddr: 0x0, symBinAddr: 0x1000018FC, symSize: 0x240 }
  - { offsetInCU: 0x2EE5, offset: 0x2EE5, size: 0x8, addend: 0x0, symName: __ZNSt3__111__introsortINS_17_ClassicAlgPolicyERNS_7greaterIiEEPiEEvT1_S6_T0_NS_15iterator_traitsIS6_E15difference_typeE, symObjAddr: 0x48C, symBinAddr: 0x100001D88, symSize: 0x6B8 }
  - { offsetInCU: 0x306C, offset: 0x306C, size: 0x8, addend: 0x0, symName: __ZNSt3__118__insertion_sort_3B7v160006INS_17_ClassicAlgPolicyERNS_7greaterIiEEPiEEvT1_S6_T0_, symObjAddr: 0xD44, symBinAddr: 0x100002640, symSize: 0x144 }
  - { offsetInCU: 0x313F, offset: 0x313F, size: 0x8, addend: 0x0, symName: __ZNSt3__111__sift_downB7v160006INS_17_ClassicAlgPolicyERNS_7greaterIiEEPiEEvT1_OT0_NS_15iterator_traitsIS6_E15difference_typeES6_, symObjAddr: 0x1840, symBinAddr: 0x10000313C, symSize: 0x20C }
  - { offsetInCU: 0x31EC, offset: 0x31EC, size: 0x8, addend: 0x0, symName: __ZNSt3__117__floyd_sift_downB7v160006INS_17_ClassicAlgPolicyERNS_7greaterIiEEPiEET1_S6_OT0_NS_15iterator_traitsIS6_E15difference_typeE, symObjAddr: 0x1BD0, symBinAddr: 0x1000034CC, symSize: 0x100 }
  - { offsetInCU: 0x3284, offset: 0x3284, size: 0x8, addend: 0x0, symName: __ZNSt3__127__insertion_sort_incompleteIRNS_7greaterIiEEPiEEbT0_S5_T_, symObjAddr: 0x10B4, symBinAddr: 0x1000029B0, symSize: 0x310 }
  - { offsetInCU: 0x4AB8, offset: 0x4AB8, size: 0x8, addend: 0x0, symName: __ZNSt3__14sortB7v160006IPiNS_7greaterIiEEEEvT_S4_T0_, symObjAddr: 0x26C, symBinAddr: 0x100001B68, symSize: 0x30 }
  - { offsetInCU: 0x4B12, offset: 0x4B12, size: 0x8, addend: 0x0, symName: __ZNSt3__14endlB7v160006IcNS_11char_traitsIcEEEERNS_13basic_ostreamIT_T0_EES7_, symObjAddr: 0x2C8, symBinAddr: 0x100001BC4, symSize: 0x58 }
  - { offsetInCU: 0x4B52, offset: 0x4B52, size: 0x8, addend: 0x0, symName: __ZNSt3__111__sort_implB7v160006INS_17_ClassicAlgPolicyEPiNS_7greaterIiEEEEvT0_S5_RT1_, symObjAddr: 0x320, symBinAddr: 0x100001C1C, symSize: 0x64 }
  - { offsetInCU: 0x4BF9, offset: 0x4BF9, size: 0x8, addend: 0x0, symName: __ZNSt3__123__debug_randomize_rangeB7v160006INS_17_ClassicAlgPolicyEPiS2_EEvT0_T1_, symObjAddr: 0x384, symBinAddr: 0x100001C80, symSize: 0x14 }
  - { offsetInCU: 0x4C4A, offset: 0x4C4A, size: 0x8, addend: 0x0, symName: __ZNSt3__16__sortIRNS_7greaterIiEEPiEEvT0_S5_T_, symObjAddr: 0x398, symBinAddr: 0x100001C94, symSize: 0x68 }
  - { offsetInCU: 0x4CDA, offset: 0x4CDA, size: 0x8, addend: 0x0, symName: __ZNSt3__113__unwrap_iterB7v160006IPiNS_18__unwrap_iter_implIS1_Lb1EEELi0EEEDTclsrT0_8__unwrapclsr3stdE7declvalIT_EEEES5_, symObjAddr: 0x400, symBinAddr: 0x100001CFC, symSize: 0x24 }
  - { offsetInCU: 0x4D1E, offset: 0x4D1E, size: 0x8, addend: 0x0, symName: __ZNSt3__17__log2iB7v160006IlEET_S1_, symObjAddr: 0x424, symBinAddr: 0x100001D20, symSize: 0x54 }
  - { offsetInCU: 0x4DF2, offset: 0x4DF2, size: 0x8, addend: 0x0, symName: __ZNSt3__112__libcpp_clzB7v160006Em, symObjAddr: 0xB5C, symBinAddr: 0x100002458, symSize: 0x1C }
  - { offsetInCU: 0x4EB8, offset: 0x4EB8, size: 0x8, addend: 0x0, symName: __ZNSt3__124__sort3_maybe_branchlessB7v160006INS_17_ClassicAlgPolicyERNS_7greaterIiEEPiEENS_9enable_ifIXsr21__use_branchless_sortIT0_T1_EE5valueEvE4typeES8_S8_S8_S7_, symObjAddr: 0xBE0, symBinAddr: 0x1000024DC, symSize: 0x4C }
  - { offsetInCU: 0x4F25, offset: 0x4F25, size: 0x8, addend: 0x0, symName: __ZNSt3__124__sort4_maybe_branchlessB7v160006INS_17_ClassicAlgPolicyERNS_7greaterIiEEPiEENS_9enable_ifIXsr21__use_branchless_sortIT0_T1_EE5valueEvE4typeES8_S8_S8_S8_S7_, symObjAddr: 0xC2C, symBinAddr: 0x100002528, symSize: 0x7C }
  - { offsetInCU: 0x4FA2, offset: 0x4FA2, size: 0x8, addend: 0x0, symName: __ZNSt3__124__sort5_maybe_branchlessB7v160006INS_17_ClassicAlgPolicyERNS_7greaterIiEEPiEENS_9enable_ifIXsr21__use_branchless_sortIT0_T1_EE5valueEvE4typeES8_S8_S8_S8_S8_S7_, symObjAddr: 0xCA8, symBinAddr: 0x1000025A4, symSize: 0x9C }
  - { offsetInCU: 0x5032, offset: 0x5032, size: 0x8, addend: 0x0, symName: __ZNSt3__114__partial_sortB7v160006INS_17_ClassicAlgPolicyERNS_7greaterIiEEPiS5_EET1_S6_S6_T2_RT0_, symObjAddr: 0xE88, symBinAddr: 0x100002784, symSize: 0x94 }
  - { offsetInCU: 0x50BA, offset: 0x50BA, size: 0x8, addend: 0x0, symName: __ZNSt3__119__sort5_wrap_policyB7v160006INS_17_ClassicAlgPolicyERNS_7greaterIiEEPiEEjT1_S6_S6_S6_S6_T0_, symObjAddr: 0xF1C, symBinAddr: 0x100002818, symSize: 0x54 }
  - { offsetInCU: 0x5160, offset: 0x5160, size: 0x8, addend: 0x0, symName: __ZNSt3__17__sort3B7v160006INS_17_ClassicAlgPolicyERNS_7greaterIiEEPiEEjT1_S6_S6_T0_, symObjAddr: 0xF70, symBinAddr: 0x10000286C, symSize: 0x144 }
  - { offsetInCU: 0x51DF, offset: 0x51DF, size: 0x8, addend: 0x0, symName: __ZNSt3__19iter_swapB7v160006IPiS1_EEvT_T0_, symObjAddr: 0x13DC, symBinAddr: 0x100002CD8, symSize: 0x2C }
  - { offsetInCU: 0x5227, offset: 0x5227, size: 0x8, addend: 0x0, symName: __ZNSt3__14swapB7v160006IiEENS_9enable_ifIXaasr21is_move_constructibleIT_EE5valuesr18is_move_assignableIS2_EE5valueEvE4typeERS2_S5_, symObjAddr: 0x1408, symBinAddr: 0x100002D04, symSize: 0x3C }
  - { offsetInCU: 0x5278, offset: 0x5278, size: 0x8, addend: 0x0, symName: __ZNSt3__111__cond_swapB7v160006IRNS_7greaterIiEEPiEEvT0_S5_T_, symObjAddr: 0x1444, symBinAddr: 0x100002D40, symSize: 0xB8 }
  - { offsetInCU: 0x52F5, offset: 0x52F5, size: 0x8, addend: 0x0, symName: __ZNSt3__123__partially_sorted_swapB7v160006IRNS_7greaterIiEEPiEEvT0_S5_S5_T_, symObjAddr: 0x14FC, symBinAddr: 0x100002DF8, symSize: 0x138 }
  - { offsetInCU: 0x53A4, offset: 0x53A4, size: 0x8, addend: 0x0, symName: __ZNSt3__119__partial_sort_implB7v160006INS_17_ClassicAlgPolicyERNS_7greaterIiEEPiS5_EET1_S6_S6_T2_OT0_, symObjAddr: 0x1678, symBinAddr: 0x100002F74, symSize: 0x110 }
  - { offsetInCU: 0x543A, offset: 0x543A, size: 0x8, addend: 0x0, symName: __ZNSt3__111__make_heapB7v160006INS_17_ClassicAlgPolicyERNS_7greaterIiEEPiEEvT1_S6_OT0_, symObjAddr: 0x1788, symBinAddr: 0x100003084, symSize: 0xB8 }
  - { offsetInCU: 0x54DC, offset: 0x54DC, size: 0x8, addend: 0x0, symName: __ZNSt3__111__sort_heapB7v160006INS_17_ClassicAlgPolicyERNS_7greaterIiEEPiEEvT1_S6_OT0_, symObjAddr: 0x1A4C, symBinAddr: 0x100003348, symSize: 0x90 }
  - { offsetInCU: 0x5570, offset: 0x5570, size: 0x8, addend: 0x0, symName: __ZNSt3__110__pop_heapB7v160006INS_17_ClassicAlgPolicyENS_7greaterIiEEPiEEvT1_S5_RT0_NS_15iterator_traitsIS5_E15difference_typeE, symObjAddr: 0x1ADC, symBinAddr: 0x1000033D8, symSize: 0xF4 }
  - { offsetInCU: 0x5620, offset: 0x5620, size: 0x8, addend: 0x0, symName: __ZNSt3__19__sift_upB7v160006INS_17_ClassicAlgPolicyERNS_7greaterIiEEPiEEvT1_S6_OT0_NS_15iterator_traitsIS6_E15difference_typeE, symObjAddr: 0x1CD0, symBinAddr: 0x1000035CC, symSize: 0x11C }
  - { offsetInCU: 0x56D0, offset: 0x56D0, size: 0x8, addend: 0x0, symName: __ZNSt3__17__sort5IRNS_7greaterIiEEPiEEjT0_S5_S5_S5_S5_T_, symObjAddr: 0x1DEC, symBinAddr: 0x1000036E8, symSize: 0x12C }
  - { offsetInCU: 0x577B, offset: 0x577B, size: 0x8, addend: 0x0, symName: __ZNSt3__17__sort4B7v160006INS_17_ClassicAlgPolicyERNS_7greaterIiEEPiEEjT1_S6_S6_S6_T0_, symObjAddr: 0x1F18, symBinAddr: 0x100003814, symSize: 0xE4 }
  - { offsetInCU: 0x585B, offset: 0x585B, size: 0x8, addend: 0x0, symName: __ZNSt3__112__to_addressB7v160006IiEEPT_S2_, symObjAddr: 0x2020, symBinAddr: 0x10000391C, symSize: 0x14 }
  - { offsetInCU: 0x5890, offset: 0x5890, size: 0x8, addend: 0x0, symName: __ZNSt3__19use_facetB7v160006INS_5ctypeIcEEEERKT_RKNS_6localeE, symObjAddr: 0x20B8, symBinAddr: 0x1000039B4, symSize: 0x2C }
  - { offsetInCU: 0x820F, offset: 0x820F, size: 0x8, addend: 0x0, symName: _main, symObjAddr: 0x0, symBinAddr: 0x1000018FC, symSize: 0x240 }
  - { offsetInCU: 0x8352, offset: 0x8352, size: 0x8, addend: 0x0, symName: __ZNSt3__19basic_iosIcNS_11char_traitsIcEEE3tieB7v160006EPNS_13basic_ostreamIcS2_EE, symObjAddr: 0x240, symBinAddr: 0x100001B3C, symSize: 0x2C }
  - { offsetInCU: 0x8396, offset: 0x8396, size: 0x8, addend: 0x0, symName: __ZNSt3__113basic_ostreamIcNS_11char_traitsIcEEElsB7v160006EPFRS3_S4_E, symObjAddr: 0x29C, symBinAddr: 0x100001B98, symSize: 0x2C }
  - { offsetInCU: 0x83E2, offset: 0x83E2, size: 0x8, addend: 0x0, symName: __ZNSt3__116_UnwrapAlgPolicyIRNS_7greaterIiEEE10__get_compB7v160006ES3_, symObjAddr: 0x478, symBinAddr: 0x100001D74, symSize: 0x14 }
  - { offsetInCU: 0x8405, offset: 0x8405, size: 0x8, addend: 0x0, symName: __ZNKSt3__17greaterIiEclB7v160006ERKiS3_, symObjAddr: 0xB78, symBinAddr: 0x100002474, symSize: 0x34 }
  - { offsetInCU: 0x844D, offset: 0x844D, size: 0x8, addend: 0x0, symName: __ZNSt3__18_IterOpsINS_17_ClassicAlgPolicyEE9iter_swapB7v160006IRPiS5_EEvOT_OT0_, symObjAddr: 0xBAC, symBinAddr: 0x1000024A8, symSize: 0x34 }
  - { offsetInCU: 0x8495, offset: 0x8495, size: 0x8, addend: 0x0, symName: __ZNSt3__18_IterOpsINS_17_ClassicAlgPolicyEE11__iter_moveB7v160006IRPiEENS_9enable_ifIXsr12is_referenceIDTdeclsr3stdE7declvalIRT_EEEEE5valueEDTclsr3stdE4movedeclsr3stdE7declvalIS8_EEEEE4typeEOS7_, symObjAddr: 0x1634, symBinAddr: 0x100002F30, symSize: 0x28 }
  - { offsetInCU: 0x84C1, offset: 0x84C1, size: 0x8, addend: 0x0, symName: __ZNSt3__18_IterOpsINS_17_ClassicAlgPolicyEE25__validate_iter_referenceB7v160006IRPiEEvv, symObjAddr: 0x165C, symBinAddr: 0x100002F58, symSize: 0x4 }
  - { offsetInCU: 0x84DF, offset: 0x84DF, size: 0x8, addend: 0x0, symName: __ZNSt3__18_IterOpsINS_17_ClassicAlgPolicyEE4nextB7v160006IPiEET_S5_S5_, symObjAddr: 0x1660, symBinAddr: 0x100002F5C, symSize: 0x18 }
  - { offsetInCU: 0x8516, offset: 0x8516, size: 0x8, addend: 0x0, symName: __ZNSt3__118__unwrap_iter_implIPiLb1EE8__unwrapB7v160006ES1_, symObjAddr: 0x1FFC, symBinAddr: 0x1000038F8, symSize: 0x24 }
  - { offsetInCU: 0x8539, offset: 0x8539, size: 0x8, addend: 0x0, symName: __ZNKSt3__19basic_iosIcNS_11char_traitsIcEEE5widenB7v160006Ec, symObjAddr: 0x2034, symBinAddr: 0x100003930, symSize: 0x84 }
  - { offsetInCU: 0x85A5, offset: 0x85A5, size: 0x8, addend: 0x0, symName: __ZNKSt3__15ctypeIcE5widenB7v160006Ec, symObjAddr: 0x20E4, symBinAddr: 0x1000039E0, symSize: 0x38 }
...
