---
triple:          'arm64-apple-darwin'
binary-path:     '/Users/youjin/Documents/GitHub/BOJ/29621/19261_backtracking'
relocations:
  - { offsetInCU: 0x3F, offset: 0x3F, size: 0x8, addend: 0x0, symName: _n, symObjAddr: 0x29D78, symBinAddr: 0x100008000, symSize: 0x0 }
  - { offsetInCU: 0x5B, offset: 0x5B, size: 0x8, addend: 0x0, symName: _list, symObjAddr: 0x29D80, symBinAddr: 0x100008008, symSize: 0x0 }
  - { offsetInCU: 0x50E7, offset: 0x50E7, size: 0x8, addend: 0x0, symName: __ZNSt3__124__put_character_sequenceB7v160006IcNS_11char_traitsIcEEEERNS_13basic_ostreamIT_T0_EES7_PKS4_m, symObjAddr: 0x24FC, symBinAddr: 0x100002F40, symSize: 0x1EC }
  - { offsetInCU: 0x6C38, offset: 0x6C38, size: 0x8, addend: 0x0, symName: __ZNSt3__13getB7v160006ILm1EJiiiEEERNS_13tuple_elementIXT_ENS_5tupleIJDpT0_EEEE4typeERS5_, symObjAddr: 0x16C, symBinAddr: 0x100000BB0, symSize: 0x28 }
  - { offsetInCU: 0x6C85, offset: 0x6C85, size: 0x8, addend: 0x0, symName: __ZNSt3__13getB7v160006ILm2EJiiiEEERNS_13tuple_elementIXT_ENS_5tupleIJDpT0_EEEE4typeERS5_, symObjAddr: 0x1C0, symBinAddr: 0x100000C04, symSize: 0x28 }
  - { offsetInCU: 0x6CD2, offset: 0x6CD2, size: 0x8, addend: 0x0, symName: __ZNSt3__13getB7v160006ILm0EJiiiEEERNS_13tuple_elementIXT_ENS_5tupleIJDpT0_EEEE4typeERS5_, symObjAddr: 0x1E8, symBinAddr: 0x100000C2C, symSize: 0x24 }
  - { offsetInCU: 0x6D1F, offset: 0x6D1F, size: 0x8, addend: 0x0, symName: __ZNSt3__13maxB7v160006IiEERKT_S3_S3_, symObjAddr: 0x20C, symBinAddr: 0x100000C50, symSize: 0x2C }
  - { offsetInCU: 0x6D6D, offset: 0x6D6D, size: 0x8, addend: 0x0, symName: __ZNSt3__110make_tupleB7v160006IJRiS1_S1_EEENS_5tupleIJDpNS_18__unwrap_ref_decayIT_E4typeEEEEDpOS4_, symObjAddr: 0x47C, symBinAddr: 0x100000EC0, symSize: 0x94 }
  - { offsetInCU: 0x6DCE, offset: 0x6DCE, size: 0x8, addend: 0x0, symName: __ZNSt3__1lsB7v160006INS_11char_traitsIcEEEERNS_13basic_ostreamIcT_EES6_c, symObjAddr: 0x510, symBinAddr: 0x100000F54, symSize: 0x34 }
  - { offsetInCU: 0x6E14, offset: 0x6E14, size: 0x8, addend: 0x0, symName: __ZNSt3__13maxB7v160006IiNS_6__lessIiiEEEERKT_S5_S5_T0_, symObjAddr: 0x580, symBinAddr: 0x100000FC4, symSize: 0x54 }
  - { offsetInCU: 0x6EE2, offset: 0x6EE2, size: 0x8, addend: 0x0, symName: __ZNSt3__119__debug_db_insert_cB7v160006INS_6vectorINS_5tupleIJiiiEEENS_9allocatorIS3_EEEEEEvPT_, symObjAddr: 0x83C, symBinAddr: 0x100001280, symSize: 0x10 }
  - { offsetInCU: 0x6F13, offset: 0x6F13, size: 0x8, addend: 0x0, symName: __ZNSt3__118__debug_db_erase_cB7v160006INS_6vectorINS_5tupleIJiiiEEENS_9allocatorIS3_EEEEEEvPT_, symObjAddr: 0xB1C, symBinAddr: 0x100001560, symSize: 0x10 }
  - { offsetInCU: 0x6F44, offset: 0x6F44, size: 0x8, addend: 0x0, symName: __ZNSt3__112__to_addressB7v160006INS_5tupleIJiiiEEEEEPT_S4_, symObjAddr: 0xC60, symBinAddr: 0x1000016A4, symSize: 0x14 }
  - { offsetInCU: 0x6F79, offset: 0x6F79, size: 0x8, addend: 0x0, symName: __ZNSt3__119__libcpp_deallocateB7v160006EPvmm, symObjAddr: 0xD84, symBinAddr: 0x1000017C8, symSize: 0x30 }
  - { offsetInCU: 0x6FC1, offset: 0x6FC1, size: 0x8, addend: 0x0, symName: __ZNSt3__127__do_deallocate_handle_sizeB7v160006IJEEEvPvmDpT_, symObjAddr: 0xDB4, symBinAddr: 0x1000017F8, symSize: 0x28 }
  - { offsetInCU: 0x6FFF, offset: 0x6FFF, size: 0x8, addend: 0x0, symName: __ZNSt3__124__libcpp_operator_deleteB7v160006IJPvEEEvDpT_, symObjAddr: 0xDDC, symBinAddr: 0x100001820, symSize: 0x24 }
  - { offsetInCU: 0x7034, offset: 0x7034, size: 0x8, addend: 0x0, symName: __ZNSt3__13maxB7v160006ImEERKT_S3_S3_, symObjAddr: 0x1450, symBinAddr: 0x100001E94, symSize: 0x2C }
  - { offsetInCU: 0x7077, offset: 0x7077, size: 0x8, addend: 0x0, symName: __ZNSt3__13minB7v160006ImEERKT_S3_S3_, symObjAddr: 0x147C, symBinAddr: 0x100001EC0, symSize: 0x2C }
  - { offsetInCU: 0x72BB, offset: 0x72BB, size: 0x8, addend: 0x0, symName: __ZNSt3__13minB7v160006ImNS_6__lessImmEEEERKT_S5_S5_T0_, symObjAddr: 0x1508, symBinAddr: 0x100001F4C, symSize: 0x54 }
  - { offsetInCU: 0x7350, offset: 0x7350, size: 0x8, addend: 0x0, symName: __ZNSt3__120__throw_length_errorB7v160006EPKc, symObjAddr: 0x15E8, symBinAddr: 0x10000202C, symSize: 0x64 }
  - { offsetInCU: 0x7378, offset: 0x7378, size: 0x8, addend: 0x0, symName: __ZNSt3__13maxB7v160006ImNS_6__lessImmEEEERKT_S5_S5_T0_, symObjAddr: 0x16CC, symBinAddr: 0x100002110, symSize: 0x54 }
  - { offsetInCU: 0x73D2, offset: 0x73D2, size: 0x8, addend: 0x0, symName: __ZNSt3__119__allocate_at_leastB7v160006INS_9allocatorINS_5tupleIJiiiEEEEEEENS_19__allocation_resultINS_16allocator_traitsIT_E7pointerEEERS7_m, symObjAddr: 0x183C, symBinAddr: 0x100002280, symSize: 0x40 }
  - { offsetInCU: 0x7415, offset: 0x7415, size: 0x8, addend: 0x0, symName: __ZNSt3__117__libcpp_allocateB7v160006Emm, symObjAddr: 0x19C4, symBinAddr: 0x100002408, symSize: 0x28 }
  - { offsetInCU: 0x7452, offset: 0x7452, size: 0x8, addend: 0x0, symName: __ZNSt3__121__libcpp_operator_newB7v160006IJmEEEPvDpT_, symObjAddr: 0x19EC, symBinAddr: 0x100002430, symSize: 0x24 }
  - { offsetInCU: 0x748B, offset: 0x748B, size: 0x8, addend: 0x0, symName: __ZNSt3__142__uninitialized_allocator_move_if_noexceptB7v160006INS_9allocatorINS_5tupleIJiiiEEEEENS_16reverse_iteratorIPS3_EES7_S7_EET2_RT_T0_T1_S8_, symObjAddr: 0x1A74, symBinAddr: 0x1000024B8, symSize: 0x12C }
  - { offsetInCU: 0x752B, offset: 0x752B, size: 0x8, addend: 0x0, symName: __ZNSt3__14swapB7v160006IPNS_5tupleIJiiiEEEEENS_9enable_ifIXaasr21is_move_constructibleIT_EE5valuesr18is_move_assignableIS5_EE5valueEvE4typeERS5_S8_, symObjAddr: 0x1BEC, symBinAddr: 0x100002630, symSize: 0x3C }
  - { offsetInCU: 0x757C, offset: 0x757C, size: 0x8, addend: 0x0, symName: __ZNSt3__125__debug_db_invalidate_allB7v160006INS_6vectorINS_5tupleIJiiiEEENS_9allocatorIS3_EEEEEEvPT_, symObjAddr: 0x1CF0, symBinAddr: 0x100002734, symSize: 0x10 }
  - { offsetInCU: 0x75AD, offset: 0x75AD, size: 0x8, addend: 0x0, symName: __ZNSt3__122__make_exception_guardB7v160006INS_29_AllocatorDestroyRangeReverseINS_9allocatorINS_5tupleIJiiiEEEEENS_16reverse_iteratorIPS4_EEEEEENS_28__exception_guard_exceptionsIT_EESB_, symObjAddr: 0x1D00, symBinAddr: 0x100002744, symSize: 0x4C }
  - { offsetInCU: 0x75E3, offset: 0x75E3, size: 0x8, addend: 0x0, symName: __ZNSt3__1neB7v160006IPNS_5tupleIJiiiEEES3_EEbRKNS_16reverse_iteratorIT_EERKNS4_IT0_EE, symObjAddr: 0x1D90, symBinAddr: 0x1000027D4, symSize: 0x48 }
  - { offsetInCU: 0x762F, offset: 0x762F, size: 0x8, addend: 0x0, symName: __ZNSt3__112__to_addressB7v160006INS_16reverse_iteratorIPNS_5tupleIJiiiEEEEEvEENS_5decayIDTclsr19__to_address_helperIT_EE6__callclsr3stdE7declvalIRKS7_EEEEE4typeES9_, symObjAddr: 0x1DD8, symBinAddr: 0x10000281C, symSize: 0x24 }
  - { offsetInCU: 0x768E, offset: 0x768E, size: 0x8, addend: 0x0, symName: __ZNSt3__119__allocator_destroyB7v160006INS_9allocatorINS_5tupleIJiiiEEEEENS_16reverse_iteratorINS5_IPS3_EEEES8_EEvRT_T0_T1_, symObjAddr: 0x2088, symBinAddr: 0x100002ACC, symSize: 0x70 }
  - { offsetInCU: 0x76F3, offset: 0x76F3, size: 0x8, addend: 0x0, symName: __ZNSt3__1neB7v160006INS_16reverse_iteratorIPNS_5tupleIJiiiEEEEES5_EEbRKNS1_IT_EERKNS1_IT0_EE, symObjAddr: 0x2134, symBinAddr: 0x100002B78, symSize: 0x60 }
  - { offsetInCU: 0x773F, offset: 0x773F, size: 0x8, addend: 0x0, symName: __ZNSt3__112__to_addressB7v160006INS_16reverse_iteratorINS1_IPNS_5tupleIJiiiEEEEEEEvEENS_5decayIDTclsr19__to_address_helperIT_EE6__callclsr3stdE7declvalIRKS8_EEEEE4typeESA_, symObjAddr: 0x2194, symBinAddr: 0x100002BD8, symSize: 0x24 }
  - { offsetInCU: 0x779E, offset: 0x779E, size: 0x8, addend: 0x0, symName: __ZNSt3__116__pad_and_outputB7v160006IcNS_11char_traitsIcEEEENS_19ostreambuf_iteratorIT_T0_EES6_PKS4_S8_S8_RNS_8ios_baseES4_, symObjAddr: 0x2704, symBinAddr: 0x100003148, symSize: 0x240 }
  - { offsetInCU: 0x786D, offset: 0x786D, size: 0x8, addend: 0x0, symName: __ZNSt3__119__debug_db_insert_cB7v160006INS_12basic_stringIcNS_11char_traitsIcEENS_9allocatorIcEEEEEEvPT_, symObjAddr: 0x2BB8, symBinAddr: 0x1000035FC, symSize: 0x10 }
  - { offsetInCU: 0x789E, offset: 0x789E, size: 0x8, addend: 0x0, symName: __ZNSt3__112__to_addressB7v160006IKcEEPT_S3_, symObjAddr: 0x2C84, symBinAddr: 0x1000036C8, symSize: 0x14 }
  - { offsetInCU: 0x7906, offset: 0x7906, size: 0x8, addend: 0x0, symName: __ZNSt3__19use_facetB7v160006INS_5ctypeIcEEEERKT_RKNS_6localeE, symObjAddr: 0x2F04, symBinAddr: 0x100003948, symSize: 0x2C }
  - { offsetInCU: 0x8039, offset: 0x8039, size: 0x8, addend: 0x0, symName: __ZSt28__throw_bad_array_new_lengthB7v160006v, symObjAddr: 0x1990, symBinAddr: 0x1000023D4, symSize: 0x34 }
  - { offsetInCU: 0x8572, offset: 0x8572, size: 0x8, addend: 0x0, symName: __ZNSt3__16vectorINS_5tupleIJiiiEEENS_9allocatorIS2_EEE26__swap_out_circular_bufferERNS_14__split_bufferIS2_RS4_EE, symObjAddr: 0x1290, symBinAddr: 0x100001CD4, symSize: 0x118 }
  - { offsetInCU: 0xA8C9, offset: 0xA8C9, size: 0x8, addend: 0x0, symName: __ZNSt3__16vectorINS_5tupleIJiiiEEENS_9allocatorIS2_EEEC1B7v160006Ev, symObjAddr: 0x0, symBinAddr: 0x100000A44, symSize: 0x2C }
  - { offsetInCU: 0xA8F2, offset: 0xA8F2, size: 0x8, addend: 0x0, symName: __ZNSt3__16vectorINS_5tupleIJiiiEEENS_9allocatorIS2_EEED1B7v160006Ev, symObjAddr: 0x2C, symBinAddr: 0x100000A70, symSize: 0x2C }
  - { offsetInCU: 0xA91A, offset: 0xA91A, size: 0x8, addend: 0x0, symName: __Z4findii, symObjAddr: 0x58, symBinAddr: 0x100000A9C, symSize: 0x114 }
  - { offsetInCU: 0xA9AB, offset: 0xA9AB, size: 0x8, addend: 0x0, symName: __ZNSt3__16vectorINS_5tupleIJiiiEEENS_9allocatorIS2_EEEixB7v160006Em, symObjAddr: 0x194, symBinAddr: 0x100000BD8, symSize: 0x2C }
  - { offsetInCU: 0xA9E1, offset: 0xA9E1, size: 0x8, addend: 0x0, symName: _main, symObjAddr: 0x238, symBinAddr: 0x100000C7C, symSize: 0x1AC }
  - { offsetInCU: 0xAA6E, offset: 0xAA6E, size: 0x8, addend: 0x0, symName: __ZNSt3__19basic_iosIcNS_11char_traitsIcEEE3tieB7v160006EPNS_13basic_ostreamIcS2_EE, symObjAddr: 0x3E4, symBinAddr: 0x100000E28, symSize: 0x2C }
  - { offsetInCU: 0xAAB2, offset: 0xAAB2, size: 0x8, addend: 0x0, symName: __ZNSt3__16vectorINS_5tupleIJiiiEEENS_9allocatorIS2_EEE9push_backB7v160006EOS2_, symObjAddr: 0x410, symBinAddr: 0x100000E54, symSize: 0x6C }
  - { offsetInCU: 0xAAE8, offset: 0xAAE8, size: 0x8, addend: 0x0, symName: __ZNSt3__112__tuple_leafILm1EiLb0EE3getB7v160006Ev, symObjAddr: 0x544, symBinAddr: 0x100000F88, symSize: 0x14 }
  - { offsetInCU: 0xAB0D, offset: 0xAB0D, size: 0x8, addend: 0x0, symName: __ZNSt3__112__tuple_leafILm2EiLb0EE3getB7v160006Ev, symObjAddr: 0x558, symBinAddr: 0x100000F9C, symSize: 0x14 }
  - { offsetInCU: 0xAB32, offset: 0xAB32, size: 0x8, addend: 0x0, symName: __ZNSt3__112__tuple_leafILm0EiLb0EE3getB7v160006Ev, symObjAddr: 0x56C, symBinAddr: 0x100000FB0, symSize: 0x14 }
  - { offsetInCU: 0xAB61, offset: 0xAB61, size: 0x8, addend: 0x0, symName: __ZNKSt3__16__lessIiiEclB7v160006ERKiS3_, symObjAddr: 0x5D4, symBinAddr: 0x100001018, symSize: 0x34 }
  - { offsetInCU: 0xABA2, offset: 0xABA2, size: 0x8, addend: 0x0, symName: __ZNSt3__15tupleIJiiiEEC1B7v160006IJRiS3_S3_ELi0EEEDpOT_, symObjAddr: 0x608, symBinAddr: 0x10000104C, symSize: 0x44 }
  - { offsetInCU: 0xAC13, offset: 0xAC13, size: 0x8, addend: 0x0, symName: __ZNSt3__15tupleIJiiiEEC2B7v160006IJRiS3_S3_ELi0EEEDpOT_, symObjAddr: 0x64C, symBinAddr: 0x100001090, symSize: 0x44 }
  - { offsetInCU: 0xAC84, offset: 0xAC84, size: 0x8, addend: 0x0, symName: __ZNSt3__112__tuple_implINS_15__tuple_indicesIJLm0ELm1ELm2EEEEJiiiEEC1B7v160006IJLm0ELm1ELm2EEJiiiEJEJEJRiS5_S5_EEENS1_IJXspT_EEEENS_13__tuple_typesIJDpT0_EEENS1_IJXspT1_EEEENS7_IJDpT2_EEEDpOT3_, symObjAddr: 0x690, symBinAddr: 0x1000010D4, symSize: 0x44 }
  - { offsetInCU: 0xAD56, offset: 0xAD56, size: 0x8, addend: 0x0, symName: __ZNSt3__112__tuple_implINS_15__tuple_indicesIJLm0ELm1ELm2EEEEJiiiEEC2B7v160006IJLm0ELm1ELm2EEJiiiEJEJEJRiS5_S5_EEENS1_IJXspT_EEEENS_13__tuple_typesIJDpT0_EEENS1_IJXspT1_EEEENS7_IJDpT2_EEEDpOT3_, symObjAddr: 0x6D4, symBinAddr: 0x100001118, symSize: 0x5C }
  - { offsetInCU: 0xAE28, offset: 0xAE28, size: 0x8, addend: 0x0, symName: __ZNSt3__112__tuple_leafILm0EiLb0EEC2B7v160006IRivEEOT_, symObjAddr: 0x730, symBinAddr: 0x100001174, symSize: 0x24 }
  - { offsetInCU: 0xAE6A, offset: 0xAE6A, size: 0x8, addend: 0x0, symName: __ZNSt3__112__tuple_leafILm1EiLb0EEC2B7v160006IRivEEOT_, symObjAddr: 0x754, symBinAddr: 0x100001198, symSize: 0x24 }
  - { offsetInCU: 0xAEAC, offset: 0xAEAC, size: 0x8, addend: 0x0, symName: __ZNSt3__112__tuple_leafILm2EiLb0EEC2B7v160006IRivEEOT_, symObjAddr: 0x778, symBinAddr: 0x1000011BC, symSize: 0x24 }
  - { offsetInCU: 0xAEEE, offset: 0xAEEE, size: 0x8, addend: 0x0, symName: __ZNSt3__16vectorINS_5tupleIJiiiEEENS_9allocatorIS2_EEEC2B7v160006Ev, symObjAddr: 0x79C, symBinAddr: 0x1000011E0, symSize: 0x58 }
  - { offsetInCU: 0xAF21, offset: 0xAF21, size: 0x8, addend: 0x0, symName: __ZNSt3__117__compressed_pairIPNS_5tupleIJiiiEEENS_9allocatorIS2_EEEC1B7v160006IDnNS_18__default_init_tagEEEOT_OT0_, symObjAddr: 0x7F4, symBinAddr: 0x100001238, symSize: 0x3C }
  - { offsetInCU: 0xAF78, offset: 0xAF78, size: 0x8, addend: 0x0, symName: __ZNSt3__117__compressed_pairIPNS_5tupleIJiiiEEENS_9allocatorIS2_EEEC2B7v160006IDnNS_18__default_init_tagEEEOT_OT0_, symObjAddr: 0x84C, symBinAddr: 0x100001290, symSize: 0x40 }
  - { offsetInCU: 0xAFCF, offset: 0xAFCF, size: 0x8, addend: 0x0, symName: __ZNSt3__122__compressed_pair_elemIPNS_5tupleIJiiiEEELi0ELb0EEC2B7v160006IDnvEEOT_, symObjAddr: 0x88C, symBinAddr: 0x1000012D0, symSize: 0x1C }
  - { offsetInCU: 0xB010, offset: 0xB010, size: 0x8, addend: 0x0, symName: __ZNSt3__122__compressed_pair_elemINS_9allocatorINS_5tupleIJiiiEEEEELi1ELb1EEC2B7v160006ENS_18__default_init_tagE, symObjAddr: 0x8A8, symBinAddr: 0x1000012EC, symSize: 0x2C }
  - { offsetInCU: 0xB044, offset: 0xB044, size: 0x8, addend: 0x0, symName: __ZNSt3__19allocatorINS_5tupleIJiiiEEEEC2B7v160006Ev, symObjAddr: 0x8D4, symBinAddr: 0x100001318, symSize: 0x2C }
  - { offsetInCU: 0xB06D, offset: 0xB06D, size: 0x8, addend: 0x0, symName: __ZNSt3__116__non_trivial_ifILb1ENS_9allocatorINS_5tupleIJiiiEEEEEEC2B7v160006Ev, symObjAddr: 0x900, symBinAddr: 0x100001344, symSize: 0x14 }
  - { offsetInCU: 0xB096, offset: 0xB096, size: 0x8, addend: 0x0, symName: __ZNSt3__16vectorINS_5tupleIJiiiEEENS_9allocatorIS2_EEED2B7v160006Ev, symObjAddr: 0x914, symBinAddr: 0x100001358, symSize: 0x44 }
  - { offsetInCU: 0xB0BF, offset: 0xB0BF, size: 0x8, addend: 0x0, symName: __ZNSt3__16vectorINS_5tupleIJiiiEEENS_9allocatorIS2_EEE16__destroy_vectorC1ERS5_, symObjAddr: 0x958, symBinAddr: 0x10000139C, symSize: 0x34 }
  - { offsetInCU: 0xB0F7, offset: 0xB0F7, size: 0x8, addend: 0x0, symName: __ZNSt3__16vectorINS_5tupleIJiiiEEENS_9allocatorIS2_EEE16__destroy_vectorclB7v160006Ev, symObjAddr: 0x98C, symBinAddr: 0x1000013D0, symSize: 0x9C }
  - { offsetInCU: 0xB11C, offset: 0xB11C, size: 0x8, addend: 0x0, symName: __ZNSt3__16vectorINS_5tupleIJiiiEEENS_9allocatorIS2_EEE16__destroy_vectorC2ERS5_, symObjAddr: 0xA28, symBinAddr: 0x10000146C, symSize: 0x20 }
  - { offsetInCU: 0xB154, offset: 0xB154, size: 0x8, addend: 0x0, symName: __ZNKSt3__16vectorINS_5tupleIJiiiEEENS_9allocatorIS2_EEE17__annotate_deleteB7v160006Ev, symObjAddr: 0xA48, symBinAddr: 0x10000148C, symSize: 0xD4 }
  - { offsetInCU: 0xB179, offset: 0xB179, size: 0x8, addend: 0x0, symName: __ZNSt3__16vectorINS_5tupleIJiiiEEENS_9allocatorIS2_EEE7__clearB7v160006Ev, symObjAddr: 0xB2C, symBinAddr: 0x100001570, symSize: 0x28 }
  - { offsetInCU: 0xB19E, offset: 0xB19E, size: 0x8, addend: 0x0, symName: __ZNSt3__116allocator_traitsINS_9allocatorINS_5tupleIJiiiEEEEEE10deallocateB7v160006ERS4_PS3_m, symObjAddr: 0xB54, symBinAddr: 0x100001598, symSize: 0x34 }
  - { offsetInCU: 0xB1E0, offset: 0xB1E0, size: 0x8, addend: 0x0, symName: __ZNSt3__16vectorINS_5tupleIJiiiEEENS_9allocatorIS2_EEE7__allocB7v160006Ev, symObjAddr: 0xB88, symBinAddr: 0x1000015CC, symSize: 0x28 }
  - { offsetInCU: 0xB205, offset: 0xB205, size: 0x8, addend: 0x0, symName: __ZNKSt3__16vectorINS_5tupleIJiiiEEENS_9allocatorIS2_EEE8capacityB7v160006Ev, symObjAddr: 0xBB0, symBinAddr: 0x1000015F4, symSize: 0x40 }
  - { offsetInCU: 0xB22A, offset: 0xB22A, size: 0x8, addend: 0x0, symName: __ZNKSt3__16vectorINS_5tupleIJiiiEEENS_9allocatorIS2_EEE31__annotate_contiguous_containerB7v160006EPKvS7_S7_S7_, symObjAddr: 0xBF0, symBinAddr: 0x100001634, symSize: 0x20 }
  - { offsetInCU: 0xB27F, offset: 0xB27F, size: 0x8, addend: 0x0, symName: __ZNKSt3__16vectorINS_5tupleIJiiiEEENS_9allocatorIS2_EEE4dataB7v160006Ev, symObjAddr: 0xC10, symBinAddr: 0x100001654, symSize: 0x28 }
  - { offsetInCU: 0xB2A4, offset: 0xB2A4, size: 0x8, addend: 0x0, symName: __ZNKSt3__16vectorINS_5tupleIJiiiEEENS_9allocatorIS2_EEE4sizeB7v160006Ev, symObjAddr: 0xC38, symBinAddr: 0x10000167C, symSize: 0x28 }
  - { offsetInCU: 0xB2C9, offset: 0xB2C9, size: 0x8, addend: 0x0, symName: __ZNSt3__16vectorINS_5tupleIJiiiEEENS_9allocatorIS2_EEE22__base_destruct_at_endB7v160006EPS2_, symObjAddr: 0xC74, symBinAddr: 0x1000016B8, symSize: 0x8C }
  - { offsetInCU: 0xB30C, offset: 0xB30C, size: 0x8, addend: 0x0, symName: __ZNSt3__116allocator_traitsINS_9allocatorINS_5tupleIJiiiEEEEEE7destroyB7v160006IS3_vEEvRS4_PT_, symObjAddr: 0xD00, symBinAddr: 0x100001744, symSize: 0x2C }
  - { offsetInCU: 0xB349, offset: 0xB349, size: 0x8, addend: 0x0, symName: __ZNSt3__19allocatorINS_5tupleIJiiiEEEE7destroyB7v160006EPS2_, symObjAddr: 0xD2C, symBinAddr: 0x100001770, symSize: 0x14 }
  - { offsetInCU: 0xB37C, offset: 0xB37C, size: 0x8, addend: 0x0, symName: __ZNSt3__19allocatorINS_5tupleIJiiiEEEE10deallocateB7v160006EPS2_m, symObjAddr: 0xD40, symBinAddr: 0x100001784, symSize: 0x44 }
  - { offsetInCU: 0xB3BD, offset: 0xB3BD, size: 0x8, addend: 0x0, symName: __ZNSt3__117__compressed_pairIPNS_5tupleIJiiiEEENS_9allocatorIS2_EEE6secondB7v160006Ev, symObjAddr: 0xE00, symBinAddr: 0x100001844, symSize: 0x24 }
  - { offsetInCU: 0xB3E2, offset: 0xB3E2, size: 0x8, addend: 0x0, symName: __ZNSt3__122__compressed_pair_elemINS_9allocatorINS_5tupleIJiiiEEEEELi1ELb1EE5__getB7v160006Ev, symObjAddr: 0xE24, symBinAddr: 0x100001868, symSize: 0x14 }
  - { offsetInCU: 0xB407, offset: 0xB407, size: 0x8, addend: 0x0, symName: __ZNKSt3__16vectorINS_5tupleIJiiiEEENS_9allocatorIS2_EEE9__end_capB7v160006Ev, symObjAddr: 0xE38, symBinAddr: 0x10000187C, symSize: 0x28 }
  - { offsetInCU: 0xB42C, offset: 0xB42C, size: 0x8, addend: 0x0, symName: __ZNKSt3__117__compressed_pairIPNS_5tupleIJiiiEEENS_9allocatorIS2_EEE5firstB7v160006Ev, symObjAddr: 0xE60, symBinAddr: 0x1000018A4, symSize: 0x24 }
  - { offsetInCU: 0xB451, offset: 0xB451, size: 0x8, addend: 0x0, symName: __ZNKSt3__122__compressed_pair_elemIPNS_5tupleIJiiiEEELi0ELb0EE5__getB7v160006Ev, symObjAddr: 0xE84, symBinAddr: 0x1000018C8, symSize: 0x14 }
  - { offsetInCU: 0xB476, offset: 0xB476, size: 0x8, addend: 0x0, symName: __ZNSt3__16vectorINS_5tupleIJiiiEEENS_9allocatorIS2_EEE9__end_capB7v160006Ev, symObjAddr: 0xE98, symBinAddr: 0x1000018DC, symSize: 0x28 }
  - { offsetInCU: 0xB49B, offset: 0xB49B, size: 0x8, addend: 0x0, symName: __ZNSt3__16vectorINS_5tupleIJiiiEEENS_9allocatorIS2_EEE22__construct_one_at_endB7v160006IJS2_EEEvDpOT_, symObjAddr: 0xEC0, symBinAddr: 0x100001904, symSize: 0x90 }
  - { offsetInCU: 0xB4E8, offset: 0xB4E8, size: 0x8, addend: 0x0, symName: __ZNSt3__16vectorINS_5tupleIJiiiEEENS_9allocatorIS2_EEE21__push_back_slow_pathIS2_EEvOT_, symObjAddr: 0xF50, symBinAddr: 0x100001994, symSize: 0xD8 }
  - { offsetInCU: 0xB545, offset: 0xB545, size: 0x8, addend: 0x0, symName: __ZNSt3__117__compressed_pairIPNS_5tupleIJiiiEEENS_9allocatorIS2_EEE5firstB7v160006Ev, symObjAddr: 0x1028, symBinAddr: 0x100001A6C, symSize: 0x24 }
  - { offsetInCU: 0xB56A, offset: 0xB56A, size: 0x8, addend: 0x0, symName: __ZNSt3__122__compressed_pair_elemIPNS_5tupleIJiiiEEELi0ELb0EE5__getB7v160006Ev, symObjAddr: 0x104C, symBinAddr: 0x100001A90, symSize: 0x14 }
  - { offsetInCU: 0xB5A8, offset: 0xB5A8, size: 0x8, addend: 0x0, symName: __ZNSt3__16vectorINS_5tupleIJiiiEEENS_9allocatorIS2_EEE21_ConstructTransactionC1B7v160006ERS5_m, symObjAddr: 0x1060, symBinAddr: 0x100001AA4, symSize: 0x3C }
  - { offsetInCU: 0xB5EF, offset: 0xB5EF, size: 0x8, addend: 0x0, symName: __ZNSt3__116allocator_traitsINS_9allocatorINS_5tupleIJiiiEEEEEE9constructB7v160006IS3_JS3_EvEEvRS4_PT_DpOT0_, symObjAddr: 0x109C, symBinAddr: 0x100001AE0, symSize: 0x34 }
  - { offsetInCU: 0xB646, offset: 0xB646, size: 0x8, addend: 0x0, symName: __ZNSt3__16vectorINS_5tupleIJiiiEEENS_9allocatorIS2_EEE21_ConstructTransactionD1B7v160006Ev, symObjAddr: 0x10D0, symBinAddr: 0x100001B14, symSize: 0x2C }
  - { offsetInCU: 0xB66F, offset: 0xB66F, size: 0x8, addend: 0x0, symName: __ZNSt3__16vectorINS_5tupleIJiiiEEENS_9allocatorIS2_EEE21_ConstructTransactionC2B7v160006ERS5_m, symObjAddr: 0x10FC, symBinAddr: 0x100001B40, symSize: 0x4C }
  - { offsetInCU: 0xB6B6, offset: 0xB6B6, size: 0x8, addend: 0x0, symName: __ZNSt3__19allocatorINS_5tupleIJiiiEEEE9constructB7v160006IS2_JS2_EEEvPT_DpOT0_, symObjAddr: 0x1148, symBinAddr: 0x100001B8C, symSize: 0x30 }
  - { offsetInCU: 0xB70B, offset: 0xB70B, size: 0x8, addend: 0x0, symName: __ZNSt3__16vectorINS_5tupleIJiiiEEENS_9allocatorIS2_EEE21_ConstructTransactionD2B7v160006Ev, symObjAddr: 0x1178, symBinAddr: 0x100001BBC, symSize: 0x20 }
  - { offsetInCU: 0xB733, offset: 0xB733, size: 0x8, addend: 0x0, symName: __ZNKSt3__16vectorINS_5tupleIJiiiEEENS_9allocatorIS2_EEE11__recommendB7v160006Em, symObjAddr: 0x1198, symBinAddr: 0x100001BDC, symSize: 0xB4 }
  - { offsetInCU: 0xB787, offset: 0xB787, size: 0x8, addend: 0x0, symName: __ZNSt3__114__split_bufferINS_5tupleIJiiiEEERNS_9allocatorIS2_EEEC1EmmS5_, symObjAddr: 0x124C, symBinAddr: 0x100001C90, symSize: 0x44 }
  - { offsetInCU: 0xB7DC, offset: 0xB7DC, size: 0x8, addend: 0x0, symName: __ZNSt3__114__split_bufferINS_5tupleIJiiiEEERNS_9allocatorIS2_EEED1Ev, symObjAddr: 0x13A8, symBinAddr: 0x100001DEC, symSize: 0x2C }
  - { offsetInCU: 0xB806, offset: 0xB806, size: 0x8, addend: 0x0, symName: __ZNKSt3__16vectorINS_5tupleIJiiiEEENS_9allocatorIS2_EEE8max_sizeEv, symObjAddr: 0x13D4, symBinAddr: 0x100001E18, symSize: 0x60 }
  - { offsetInCU: 0xB82D, offset: 0xB82D, size: 0x8, addend: 0x0, symName: __ZNKSt3__16vectorINS_5tupleIJiiiEEENS_9allocatorIS2_EEE20__throw_length_errorB7v160006Ev, symObjAddr: 0x1434, symBinAddr: 0x100001E78, symSize: 0x1C }
  - { offsetInCU: 0xB85C, offset: 0xB85C, size: 0x8, addend: 0x0, symName: __ZNSt3__116allocator_traitsINS_9allocatorINS_5tupleIJiiiEEEEEE8max_sizeB7v160006IS4_vEEmRKS4_, symObjAddr: 0x14A8, symBinAddr: 0x100001EEC, symSize: 0x24 }
  - { offsetInCU: 0xB88A, offset: 0xB88A, size: 0x8, addend: 0x0, symName: __ZNKSt3__16vectorINS_5tupleIJiiiEEENS_9allocatorIS2_EEE7__allocB7v160006Ev, symObjAddr: 0x14CC, symBinAddr: 0x100001F10, symSize: 0x28 }
  - { offsetInCU: 0xB8AF, offset: 0xB8AF, size: 0x8, addend: 0x0, symName: __ZNSt3__114numeric_limitsIlE3maxB7v160006Ev, symObjAddr: 0x14F4, symBinAddr: 0x100001F38, symSize: 0x14 }
  - { offsetInCU: 0xB8D7, offset: 0xB8D7, size: 0x8, addend: 0x0, symName: __ZNKSt3__16__lessImmEclB7v160006ERKmS3_, symObjAddr: 0x155C, symBinAddr: 0x100001FA0, symSize: 0x34 }
  - { offsetInCU: 0xB918, offset: 0xB918, size: 0x8, addend: 0x0, symName: __ZNKSt3__19allocatorINS_5tupleIJiiiEEEE8max_sizeB7v160006Ev, symObjAddr: 0x1590, symBinAddr: 0x100001FD4, symSize: 0x18 }
  - { offsetInCU: 0xB93D, offset: 0xB93D, size: 0x8, addend: 0x0, symName: __ZNKSt3__117__compressed_pairIPNS_5tupleIJiiiEEENS_9allocatorIS2_EEE6secondB7v160006Ev, symObjAddr: 0x15A8, symBinAddr: 0x100001FEC, symSize: 0x24 }
  - { offsetInCU: 0xB962, offset: 0xB962, size: 0x8, addend: 0x0, symName: __ZNKSt3__122__compressed_pair_elemINS_9allocatorINS_5tupleIJiiiEEEEELi1ELb1EE5__getB7v160006Ev, symObjAddr: 0x15CC, symBinAddr: 0x100002010, symSize: 0x14 }
  - { offsetInCU: 0xB987, offset: 0xB987, size: 0x8, addend: 0x0, symName: __ZNSt3__123__libcpp_numeric_limitsIlLb1EE3maxB7v160006Ev, symObjAddr: 0x15E0, symBinAddr: 0x100002024, symSize: 0x8 }
  - { offsetInCU: 0xB99B, offset: 0xB99B, size: 0x8, addend: 0x0, symName: __ZNSt12length_errorC1B7v160006EPKc, symObjAddr: 0x164C, symBinAddr: 0x100002090, symSize: 0x34 }
  - { offsetInCU: 0xB9D2, offset: 0xB9D2, size: 0x8, addend: 0x0, symName: __ZNSt12length_errorC2B7v160006EPKc, symObjAddr: 0x1680, symBinAddr: 0x1000020C4, symSize: 0x4C }
  - { offsetInCU: 0xBA09, offset: 0xBA09, size: 0x8, addend: 0x0, symName: __ZNSt3__114__split_bufferINS_5tupleIJiiiEEERNS_9allocatorIS2_EEEC2EmmS5_, symObjAddr: 0x1720, symBinAddr: 0x100002164, symSize: 0xE0 }
  - { offsetInCU: 0xBA7C, offset: 0xBA7C, size: 0x8, addend: 0x0, symName: __ZNSt3__117__compressed_pairIPNS_5tupleIJiiiEEERNS_9allocatorIS2_EEEC1B7v160006IDnS6_EEOT_OT0_, symObjAddr: 0x1800, symBinAddr: 0x100002244, symSize: 0x3C }
  - { offsetInCU: 0xBAD3, offset: 0xBAD3, size: 0x8, addend: 0x0, symName: __ZNSt3__114__split_bufferINS_5tupleIJiiiEEERNS_9allocatorIS2_EEE7__allocB7v160006Ev, symObjAddr: 0x187C, symBinAddr: 0x1000022C0, symSize: 0x28 }
  - { offsetInCU: 0xBAF8, offset: 0xBAF8, size: 0x8, addend: 0x0, symName: __ZNSt3__114__split_bufferINS_5tupleIJiiiEEERNS_9allocatorIS2_EEE9__end_capB7v160006Ev, symObjAddr: 0x18A4, symBinAddr: 0x1000022E8, symSize: 0x28 }
  - { offsetInCU: 0xBB1D, offset: 0xBB1D, size: 0x8, addend: 0x0, symName: __ZNSt3__117__compressed_pairIPNS_5tupleIJiiiEEERNS_9allocatorIS2_EEEC2B7v160006IDnS6_EEOT_OT0_, symObjAddr: 0x18CC, symBinAddr: 0x100002310, symSize: 0x48 }
  - { offsetInCU: 0xBB74, offset: 0xBB74, size: 0x8, addend: 0x0, symName: __ZNSt3__122__compressed_pair_elemIRNS_9allocatorINS_5tupleIJiiiEEEEELi1ELb0EEC2B7v160006IS5_vEEOT_, symObjAddr: 0x1914, symBinAddr: 0x100002358, symSize: 0x20 }
  - { offsetInCU: 0xBBB5, offset: 0xBBB5, size: 0x8, addend: 0x0, symName: __ZNSt3__19allocatorINS_5tupleIJiiiEEEE8allocateB7v160006Em, symObjAddr: 0x1934, symBinAddr: 0x100002378, symSize: 0x5C }
  - { offsetInCU: 0xBBE8, offset: 0xBBE8, size: 0x8, addend: 0x0, symName: __ZNSt3__117__compressed_pairIPNS_5tupleIJiiiEEERNS_9allocatorIS2_EEE6secondB7v160006Ev, symObjAddr: 0x1A10, symBinAddr: 0x100002454, symSize: 0x28 }
  - { offsetInCU: 0xBC0D, offset: 0xBC0D, size: 0x8, addend: 0x0, symName: __ZNSt3__122__compressed_pair_elemIRNS_9allocatorINS_5tupleIJiiiEEEEELi1ELb0EE5__getB7v160006Ev, symObjAddr: 0x1A38, symBinAddr: 0x10000247C, symSize: 0x18 }
  - { offsetInCU: 0xBC32, offset: 0xBC32, size: 0x8, addend: 0x0, symName: __ZNSt3__117__compressed_pairIPNS_5tupleIJiiiEEERNS_9allocatorIS2_EEE5firstB7v160006Ev, symObjAddr: 0x1A50, symBinAddr: 0x100002494, symSize: 0x24 }
  - { offsetInCU: 0xBC57, offset: 0xBC57, size: 0x8, addend: 0x0, symName: __ZNSt3__116reverse_iteratorIPNS_5tupleIJiiiEEEEC1B7v160006ES3_, symObjAddr: 0x1BA0, symBinAddr: 0x1000025E4, symSize: 0x34 }
  - { offsetInCU: 0xBC8E, offset: 0xBC8E, size: 0x8, addend: 0x0, symName: __ZNKSt3__116reverse_iteratorIPNS_5tupleIJiiiEEEE4baseB7v160006Ev, symObjAddr: 0x1BD4, symBinAddr: 0x100002618, symSize: 0x18 }
  - { offsetInCU: 0xBCB3, offset: 0xBCB3, size: 0x8, addend: 0x0, symName: __ZNKSt3__16vectorINS_5tupleIJiiiEEENS_9allocatorIS2_EEE14__annotate_newB7v160006Em, symObjAddr: 0x1C28, symBinAddr: 0x10000266C, symSize: 0xC8 }
  - { offsetInCU: 0xBCE7, offset: 0xBCE7, size: 0x8, addend: 0x0, symName: __ZNSt3__129_AllocatorDestroyRangeReverseINS_9allocatorINS_5tupleIJiiiEEEEENS_16reverse_iteratorIPS3_EEEC1B7v160006ERS4_RS7_SA_, symObjAddr: 0x1D4C, symBinAddr: 0x100002790, symSize: 0x44 }
  - { offsetInCU: 0xBD3D, offset: 0xBD3D, size: 0x8, addend: 0x0, symName: __ZNKSt3__116reverse_iteratorIPNS_5tupleIJiiiEEEEdeB7v160006Ev, symObjAddr: 0x1DFC, symBinAddr: 0x100002840, symSize: 0x28 }
  - { offsetInCU: 0xBD70, offset: 0xBD70, size: 0x8, addend: 0x0, symName: __ZNSt3__116reverse_iteratorIPNS_5tupleIJiiiEEEEppB7v160006Ev, symObjAddr: 0x1E24, symBinAddr: 0x100002868, symSize: 0x20 }
  - { offsetInCU: 0xBD95, offset: 0xBD95, size: 0x8, addend: 0x0, symName: __ZNSt3__128__exception_guard_exceptionsINS_29_AllocatorDestroyRangeReverseINS_9allocatorINS_5tupleIJiiiEEEEENS_16reverse_iteratorIPS4_EEEEE10__completeB7v160006Ev, symObjAddr: 0x1E44, symBinAddr: 0x100002888, symSize: 0x1C }
  - { offsetInCU: 0xBDBA, offset: 0xBDBA, size: 0x8, addend: 0x0, symName: __ZNSt3__128__exception_guard_exceptionsINS_29_AllocatorDestroyRangeReverseINS_9allocatorINS_5tupleIJiiiEEEEENS_16reverse_iteratorIPS4_EEEEED1B7v160006Ev, symObjAddr: 0x1E60, symBinAddr: 0x1000028A4, symSize: 0x2C }
  - { offsetInCU: 0xBDE3, offset: 0xBDE3, size: 0x8, addend: 0x0, symName: __ZNSt3__128__exception_guard_exceptionsINS_29_AllocatorDestroyRangeReverseINS_9allocatorINS_5tupleIJiiiEEEEENS_16reverse_iteratorIPS4_EEEEEC1B7v160006ES9_, symObjAddr: 0x1E8C, symBinAddr: 0x1000028D0, symSize: 0x34 }
  - { offsetInCU: 0xBE1B, offset: 0xBE1B, size: 0x8, addend: 0x0, symName: __ZNSt3__128__exception_guard_exceptionsINS_29_AllocatorDestroyRangeReverseINS_9allocatorINS_5tupleIJiiiEEEEENS_16reverse_iteratorIPS4_EEEEEC2B7v160006ES9_, symObjAddr: 0x1EC0, symBinAddr: 0x100002904, symSize: 0x30 }
  - { offsetInCU: 0xBE53, offset: 0xBE53, size: 0x8, addend: 0x0, symName: __ZNSt3__129_AllocatorDestroyRangeReverseINS_9allocatorINS_5tupleIJiiiEEEEENS_16reverse_iteratorIPS3_EEEC2B7v160006ERS4_RS7_SA_, symObjAddr: 0x1EF0, symBinAddr: 0x100002934, symSize: 0x38 }
  - { offsetInCU: 0xBEAE, offset: 0xBEAE, size: 0x8, addend: 0x0, symName: __ZNSt3__119__to_address_helperINS_16reverse_iteratorIPNS_5tupleIJiiiEEEEEvE6__callB7v160006ERKS5_, symObjAddr: 0x1F28, symBinAddr: 0x10000296C, symSize: 0x38 }
  - { offsetInCU: 0xBED1, offset: 0xBED1, size: 0x8, addend: 0x0, symName: __ZNKSt3__116reverse_iteratorIPNS_5tupleIJiiiEEEEptB7v160006Ev, symObjAddr: 0x1F60, symBinAddr: 0x1000029A4, symSize: 0x24 }
  - { offsetInCU: 0xBEF6, offset: 0xBEF6, size: 0x8, addend: 0x0, symName: __ZNSt3__128__exception_guard_exceptionsINS_29_AllocatorDestroyRangeReverseINS_9allocatorINS_5tupleIJiiiEEEEENS_16reverse_iteratorIPS4_EEEEED2B7v160006Ev, symObjAddr: 0x1F84, symBinAddr: 0x1000029C8, symSize: 0x50 }
  - { offsetInCU: 0xBF1F, offset: 0xBF1F, size: 0x8, addend: 0x0, symName: __ZNKSt3__129_AllocatorDestroyRangeReverseINS_9allocatorINS_5tupleIJiiiEEEEENS_16reverse_iteratorIPS3_EEEclB7v160006Ev, symObjAddr: 0x1FD4, symBinAddr: 0x100002A18, symSize: 0xB4 }
  - { offsetInCU: 0xBF45, offset: 0xBF45, size: 0x8, addend: 0x0, symName: __ZNSt3__116reverse_iteratorINS0_IPNS_5tupleIJiiiEEEEEEC1B7v160006ES4_, symObjAddr: 0x20F8, symBinAddr: 0x100002B3C, symSize: 0x3C }
  - { offsetInCU: 0xBF7C, offset: 0xBF7C, size: 0x8, addend: 0x0, symName: __ZNSt3__116reverse_iteratorINS0_IPNS_5tupleIJiiiEEEEEEppB7v160006Ev, symObjAddr: 0x21B8, symBinAddr: 0x100002BFC, symSize: 0x30 }
  - { offsetInCU: 0xBFA1, offset: 0xBFA1, size: 0x8, addend: 0x0, symName: __ZNKSt3__116reverse_iteratorINS0_IPNS_5tupleIJiiiEEEEEE4baseB7v160006Ev, symObjAddr: 0x21E8, symBinAddr: 0x100002C2C, symSize: 0x24 }
  - { offsetInCU: 0xBFCB, offset: 0xBFCB, size: 0x8, addend: 0x0, symName: __ZNSt3__119__to_address_helperINS_16reverse_iteratorINS1_IPNS_5tupleIJiiiEEEEEEEvE6__callB7v160006ERKS6_, symObjAddr: 0x220C, symBinAddr: 0x100002C50, symSize: 0x38 }
  - { offsetInCU: 0xBFEE, offset: 0xBFEE, size: 0x8, addend: 0x0, symName: __ZNKSt3__116reverse_iteratorINS0_IPNS_5tupleIJiiiEEEEEEptB7v160006Ev, symObjAddr: 0x2244, symBinAddr: 0x100002C88, symSize: 0x24 }
  - { offsetInCU: 0xC013, offset: 0xC013, size: 0x8, addend: 0x0, symName: __ZNKSt3__116reverse_iteratorINS0_IPNS_5tupleIJiiiEEEEEEdeB7v160006Ev, symObjAddr: 0x2268, symBinAddr: 0x100002CAC, symSize: 0x34 }
  - { offsetInCU: 0xC046, offset: 0xC046, size: 0x8, addend: 0x0, symName: __ZNSt3__116reverse_iteratorIPNS_5tupleIJiiiEEEEmmB7v160006Ev, symObjAddr: 0x229C, symBinAddr: 0x100002CE0, symSize: 0x20 }
  - { offsetInCU: 0xC06B, offset: 0xC06B, size: 0x8, addend: 0x0, symName: __ZNSt3__116reverse_iteratorINS0_IPNS_5tupleIJiiiEEEEEEC2B7v160006ES4_, symObjAddr: 0x22BC, symBinAddr: 0x100002D00, symSize: 0x2C }
  - { offsetInCU: 0xC0A2, offset: 0xC0A2, size: 0x8, addend: 0x0, symName: __ZNSt3__116reverse_iteratorIPNS_5tupleIJiiiEEEEC2B7v160006ES3_, symObjAddr: 0x22E8, symBinAddr: 0x100002D2C, symSize: 0x28 }
  - { offsetInCU: 0xC0D9, offset: 0xC0D9, size: 0x8, addend: 0x0, symName: __ZNSt3__114__split_bufferINS_5tupleIJiiiEEERNS_9allocatorIS2_EEED2Ev, symObjAddr: 0x2310, symBinAddr: 0x100002D54, symSize: 0x8C }
  - { offsetInCU: 0xC104, offset: 0xC104, size: 0x8, addend: 0x0, symName: __ZNSt3__114__split_bufferINS_5tupleIJiiiEEERNS_9allocatorIS2_EEE5clearB7v160006Ev, symObjAddr: 0x239C, symBinAddr: 0x100002DE0, symSize: 0x28 }
  - { offsetInCU: 0xC129, offset: 0xC129, size: 0x8, addend: 0x0, symName: __ZNKSt3__114__split_bufferINS_5tupleIJiiiEEERNS_9allocatorIS2_EEE8capacityB7v160006Ev, symObjAddr: 0x23C4, symBinAddr: 0x100002E08, symSize: 0x40 }
  - { offsetInCU: 0xC14E, offset: 0xC14E, size: 0x8, addend: 0x0, symName: __ZNSt3__114__split_bufferINS_5tupleIJiiiEEERNS_9allocatorIS2_EEE17__destruct_at_endB7v160006EPS2_, symObjAddr: 0x2404, symBinAddr: 0x100002E48, symSize: 0x2C }
  - { offsetInCU: 0xC180, offset: 0xC180, size: 0x8, addend: 0x0, symName: __ZNSt3__114__split_bufferINS_5tupleIJiiiEEERNS_9allocatorIS2_EEE17__destruct_at_endB7v160006EPS2_NS_17integral_constantIbLb0EEE, symObjAddr: 0x2430, symBinAddr: 0x100002E74, symSize: 0x80 }
  - { offsetInCU: 0xC1C0, offset: 0xC1C0, size: 0x8, addend: 0x0, symName: __ZNKSt3__114__split_bufferINS_5tupleIJiiiEEERNS_9allocatorIS2_EEE9__end_capB7v160006Ev, symObjAddr: 0x24B0, symBinAddr: 0x100002EF4, symSize: 0x28 }
  - { offsetInCU: 0xC1E5, offset: 0xC1E5, size: 0x8, addend: 0x0, symName: __ZNKSt3__117__compressed_pairIPNS_5tupleIJiiiEEERNS_9allocatorIS2_EEE5firstB7v160006Ev, symObjAddr: 0x24D8, symBinAddr: 0x100002F1C, symSize: 0x24 }
  - { offsetInCU: 0xC228, offset: 0xC228, size: 0x8, addend: 0x0, symName: __ZNKSt3__113basic_ostreamIcNS_11char_traitsIcEEE6sentrycvbB7v160006Ev, symObjAddr: 0x26E8, symBinAddr: 0x10000312C, symSize: 0x1C }
  - { offsetInCU: 0xC24D, offset: 0xC24D, size: 0x8, addend: 0x0, symName: __ZNSt3__119ostreambuf_iteratorIcNS_11char_traitsIcEEEC1B7v160006ERNS_13basic_ostreamIcS2_EE, symObjAddr: 0x2944, symBinAddr: 0x100003388, symSize: 0x34 }
  - { offsetInCU: 0xC284, offset: 0xC284, size: 0x8, addend: 0x0, symName: __ZNKSt3__18ios_base5flagsB7v160006Ev, symObjAddr: 0x2978, symBinAddr: 0x1000033BC, symSize: 0x18 }
  - { offsetInCU: 0xC2AA, offset: 0xC2AA, size: 0x8, addend: 0x0, symName: __ZNKSt3__19basic_iosIcNS_11char_traitsIcEEE4fillB7v160006Ev, symObjAddr: 0x2990, symBinAddr: 0x1000033D4, symSize: 0x64 }
  - { offsetInCU: 0xC2D1, offset: 0xC2D1, size: 0x8, addend: 0x0, symName: __ZNKSt3__119ostreambuf_iteratorIcNS_11char_traitsIcEEE6failedB7v160006Ev, symObjAddr: 0x29F4, symBinAddr: 0x100003438, symSize: 0x24 }
  - { offsetInCU: 0xC2F6, offset: 0xC2F6, size: 0x8, addend: 0x0, symName: __ZNSt3__19basic_iosIcNS_11char_traitsIcEEE8setstateB7v160006Ej, symObjAddr: 0x2A18, symBinAddr: 0x10000345C, symSize: 0x2C }
  - { offsetInCU: 0xC32A, offset: 0xC32A, size: 0x8, addend: 0x0, symName: __ZNKSt3__18ios_base5widthB7v160006Ev, symObjAddr: 0x2A44, symBinAddr: 0x100003488, symSize: 0x18 }
  - { offsetInCU: 0xC351, offset: 0xC351, size: 0x8, addend: 0x0, symName: __ZNSt3__115basic_streambufIcNS_11char_traitsIcEEE5sputnB7v160006EPKcl, symObjAddr: 0x2A5C, symBinAddr: 0x1000034A0, symSize: 0x3C }
  - { offsetInCU: 0xC392, offset: 0xC392, size: 0x8, addend: 0x0, symName: __ZNSt3__112basic_stringIcNS_11char_traitsIcEENS_9allocatorIcEEEC1B7v160006Emc, symObjAddr: 0x2A98, symBinAddr: 0x1000034DC, symSize: 0x3C }
  - { offsetInCU: 0xC3D9, offset: 0xC3D9, size: 0x8, addend: 0x0, symName: __ZNKSt3__112basic_stringIcNS_11char_traitsIcEENS_9allocatorIcEEE4dataB7v160006Ev, symObjAddr: 0x2AD4, symBinAddr: 0x100003518, symSize: 0x28 }
  - { offsetInCU: 0xC3FE, offset: 0xC3FE, size: 0x8, addend: 0x0, symName: __ZNSt3__18ios_base5widthB7v160006El, symObjAddr: 0x2AFC, symBinAddr: 0x100003540, symSize: 0x2C }
  - { offsetInCU: 0xC443, offset: 0xC443, size: 0x8, addend: 0x0, symName: __ZNSt3__112basic_stringIcNS_11char_traitsIcEENS_9allocatorIcEEEC2B7v160006Emc, symObjAddr: 0x2B28, symBinAddr: 0x10000356C, symSize: 0x54 }
  - { offsetInCU: 0xC48A, offset: 0xC48A, size: 0x8, addend: 0x0, symName: __ZNSt3__117__compressed_pairINS_12basic_stringIcNS_11char_traitsIcEENS_9allocatorIcEEE5__repES5_EC1B7v160006INS_18__default_init_tagESA_EEOT_OT0_, symObjAddr: 0x2B7C, symBinAddr: 0x1000035C0, symSize: 0x3C }
  - { offsetInCU: 0xC4E1, offset: 0xC4E1, size: 0x8, addend: 0x0, symName: __ZNSt3__117__compressed_pairINS_12basic_stringIcNS_11char_traitsIcEENS_9allocatorIcEEE5__repES5_EC2B7v160006INS_18__default_init_tagESA_EEOT_OT0_, symObjAddr: 0x2BC8, symBinAddr: 0x10000360C, symSize: 0x3C }
  - { offsetInCU: 0xC538, offset: 0xC538, size: 0x8, addend: 0x0, symName: __ZNSt3__122__compressed_pair_elemINS_12basic_stringIcNS_11char_traitsIcEENS_9allocatorIcEEE5__repELi0ELb0EEC2B7v160006ENS_18__default_init_tagE, symObjAddr: 0x2C04, symBinAddr: 0x100003648, symSize: 0x14 }
  - { offsetInCU: 0xC56C, offset: 0xC56C, size: 0x8, addend: 0x0, symName: __ZNSt3__122__compressed_pair_elemINS_9allocatorIcEELi1ELb1EEC2B7v160006ENS_18__default_init_tagE, symObjAddr: 0x2C18, symBinAddr: 0x10000365C, symSize: 0x2C }
  - { offsetInCU: 0xC5A0, offset: 0xC5A0, size: 0x8, addend: 0x0, symName: __ZNSt3__19allocatorIcEC2B7v160006Ev, symObjAddr: 0x2C44, symBinAddr: 0x100003688, symSize: 0x2C }
  - { offsetInCU: 0xC5C9, offset: 0xC5C9, size: 0x8, addend: 0x0, symName: __ZNSt3__116__non_trivial_ifILb1ENS_9allocatorIcEEEC2B7v160006Ev, symObjAddr: 0x2C70, symBinAddr: 0x1000036B4, symSize: 0x14 }
  - { offsetInCU: 0xC5F2, offset: 0xC5F2, size: 0x8, addend: 0x0, symName: __ZNKSt3__112basic_stringIcNS_11char_traitsIcEENS_9allocatorIcEEE13__get_pointerB7v160006Ev, symObjAddr: 0x2C98, symBinAddr: 0x1000036DC, symSize: 0x54 }
  - { offsetInCU: 0xC617, offset: 0xC617, size: 0x8, addend: 0x0, symName: __ZNKSt3__112basic_stringIcNS_11char_traitsIcEENS_9allocatorIcEEE9__is_longB7v160006Ev, symObjAddr: 0x2CEC, symBinAddr: 0x100003730, symSize: 0x38 }
  - { offsetInCU: 0xC63C, offset: 0xC63C, size: 0x8, addend: 0x0, symName: __ZNKSt3__112basic_stringIcNS_11char_traitsIcEENS_9allocatorIcEEE18__get_long_pointerB7v160006Ev, symObjAddr: 0x2D24, symBinAddr: 0x100003768, symSize: 0x28 }
  - { offsetInCU: 0xC661, offset: 0xC661, size: 0x8, addend: 0x0, symName: __ZNKSt3__112basic_stringIcNS_11char_traitsIcEENS_9allocatorIcEEE19__get_short_pointerB7v160006Ev, symObjAddr: 0x2D4C, symBinAddr: 0x100003790, symSize: 0x28 }
  - { offsetInCU: 0xC686, offset: 0xC686, size: 0x8, addend: 0x0, symName: __ZNKSt3__117__compressed_pairINS_12basic_stringIcNS_11char_traitsIcEENS_9allocatorIcEEE5__repES5_E5firstB7v160006Ev, symObjAddr: 0x2D74, symBinAddr: 0x1000037B8, symSize: 0x24 }
  - { offsetInCU: 0xC6AB, offset: 0xC6AB, size: 0x8, addend: 0x0, symName: __ZNKSt3__122__compressed_pair_elemINS_12basic_stringIcNS_11char_traitsIcEENS_9allocatorIcEEE5__repELi0ELb0EE5__getB7v160006Ev, symObjAddr: 0x2D98, symBinAddr: 0x1000037DC, symSize: 0x14 }
  - { offsetInCU: 0xC6D0, offset: 0xC6D0, size: 0x8, addend: 0x0, symName: __ZNSt3__114pointer_traitsIPKcE10pointer_toB7v160006ERS1_, symObjAddr: 0x2DAC, symBinAddr: 0x1000037F0, symSize: 0x14 }
  - { offsetInCU: 0xC6F3, offset: 0xC6F3, size: 0x8, addend: 0x0, symName: __ZNSt3__119ostreambuf_iteratorIcNS_11char_traitsIcEEEC2B7v160006ERNS_13basic_ostreamIcS2_EE, symObjAddr: 0x2DC0, symBinAddr: 0x100003804, symSize: 0x54 }
  - { offsetInCU: 0xC729, offset: 0xC729, size: 0x8, addend: 0x0, symName: __ZNKSt3__19basic_iosIcNS_11char_traitsIcEEE5rdbufB7v160006Ev, symObjAddr: 0x2E14, symBinAddr: 0x100003858, symSize: 0x24 }
  - { offsetInCU: 0xC750, offset: 0xC750, size: 0x8, addend: 0x0, symName: __ZNKSt3__18ios_base5rdbufB7v160006Ev, symObjAddr: 0x2E38, symBinAddr: 0x10000387C, symSize: 0x18 }
  - { offsetInCU: 0xC775, offset: 0xC775, size: 0x8, addend: 0x0, symName: __ZNSt3__111char_traitsIcE11eq_int_typeEii, symObjAddr: 0x2E50, symBinAddr: 0x100003894, symSize: 0x28 }
  - { offsetInCU: 0xC7A6, offset: 0xC7A6, size: 0x8, addend: 0x0, symName: __ZNSt3__111char_traitsIcE3eofEv, symObjAddr: 0x2E78, symBinAddr: 0x1000038BC, symSize: 0x8 }
  - { offsetInCU: 0xC7B9, offset: 0xC7B9, size: 0x8, addend: 0x0, symName: __ZNKSt3__19basic_iosIcNS_11char_traitsIcEEE5widenB7v160006Ec, symObjAddr: 0x2E80, symBinAddr: 0x1000038C4, symSize: 0x84 }
  - { offsetInCU: 0xC826, offset: 0xC826, size: 0x8, addend: 0x0, symName: __ZNKSt3__15ctypeIcE5widenB7v160006Ec, symObjAddr: 0x2F30, symBinAddr: 0x100003974, symSize: 0x38 }
  - { offsetInCU: 0xC859, offset: 0xC859, size: 0x8, addend: 0x0, symName: __ZNSt3__18ios_base8setstateB7v160006Ej, symObjAddr: 0x2F68, symBinAddr: 0x1000039AC, symSize: 0x34 }
...
