---
triple:          'arm64-apple-darwin'
binary-path:     '/Users/youjin/Documents/GitHub/BOJ/30827/30827'
relocations:
  - { offsetInCU: 0x42B7, offset: 0x42B7, size: 0x8, addend: 0x0, symName: __ZNSt3__111__introsortINS_17_ClassicAlgPolicyERPFbNS_4pairIiiEES3_EPS3_EEvT1_S8_T0_NS_15iterator_traitsIS8_E15difference_typeE, symObjAddr: 0x234C, symBinAddr: 0x100004DF8, symSize: 0x8AC }
  - { offsetInCU: 0x4417, offset: 0x4417, size: 0x8, addend: 0x0, symName: __ZNSt3__118__insertion_sort_3B7v160006INS_17_ClassicAlgPolicyERPFbNS_4pairIiiEES3_EPS3_EEvT1_S8_T0_, symObjAddr: 0x2D2C, symBinAddr: 0x1000057D8, symSize: 0x178 }
  - { offsetInCU: 0x44EA, offset: 0x44EA, size: 0x8, addend: 0x0, symName: __ZNSt3__111__sift_downB7v160006INS_17_ClassicAlgPolicyERPFbNS_4pairIiiEES3_EPS3_EEvT1_OT0_NS_15iterator_traitsIS8_E15difference_typeES8_, symObjAddr: 0x3950, symBinAddr: 0x1000063FC, symSize: 0x270 }
  - { offsetInCU: 0x4597, offset: 0x4597, size: 0x8, addend: 0x0, symName: __ZNSt3__117__floyd_sift_downB7v160006INS_17_ClassicAlgPolicyERPFbNS_4pairIiiEES3_EPS3_EET1_S8_OT0_NS_15iterator_traitsIS8_E15difference_typeE, symObjAddr: 0x3D44, symBinAddr: 0x1000067F0, symSize: 0x118 }
  - { offsetInCU: 0x462F, offset: 0x462F, size: 0x8, addend: 0x0, symName: __ZNSt3__127__insertion_sort_incompleteIRPFbNS_4pairIiiEES2_EPS2_EEbT0_S7_T_, symObjAddr: 0x315C, symBinAddr: 0x100005C08, symSize: 0x360 }
  - { offsetInCU: 0x6466, offset: 0x6466, size: 0x8, addend: 0x0, symName: __ZNSt3__19make_pairB7v160006IRiS1_EENS_4pairINS_18__unwrap_ref_decayIT_E4typeENS3_IT0_E4typeEEEOS4_OS7_, symObjAddr: 0x24C, symBinAddr: 0x100002CF8, symSize: 0x34 }
  - { offsetInCU: 0x64B5, offset: 0x64B5, size: 0x8, addend: 0x0, symName: __ZNSt3__14sortB7v160006INS_11__wrap_iterIPNS_4pairIiiEEEEPFbS3_S3_EEEvT_S8_T0_, symObjAddr: 0x280, symBinAddr: 0x100002D2C, symSize: 0x48 }
  - { offsetInCU: 0x650F, offset: 0x650F, size: 0x8, addend: 0x0, symName: __ZNSt3__119__debug_db_insert_cB7v160006INS_6vectorINS_4pairIiiEENS_9allocatorIS3_EEEEEEvPT_, symObjAddr: 0x4C4, symBinAddr: 0x100002F70, symSize: 0x10 }
  - { offsetInCU: 0x6540, offset: 0x6540, size: 0x8, addend: 0x0, symName: __ZNSt3__118__debug_db_erase_cB7v160006INS_6vectorINS_4pairIiiEENS_9allocatorIS3_EEEEEEvPT_, symObjAddr: 0x788, symBinAddr: 0x100003234, symSize: 0x10 }
  - { offsetInCU: 0x6571, offset: 0x6571, size: 0x8, addend: 0x0, symName: __ZNSt3__112__to_addressB7v160006INS_4pairIiiEEEEPT_S4_, symObjAddr: 0x8CC, symBinAddr: 0x100003378, symSize: 0x14 }
  - { offsetInCU: 0x65A6, offset: 0x65A6, size: 0x8, addend: 0x0, symName: __ZNSt3__119__libcpp_deallocateB7v160006EPvmm, symObjAddr: 0x9EC, symBinAddr: 0x100003498, symSize: 0x30 }
  - { offsetInCU: 0x65EE, offset: 0x65EE, size: 0x8, addend: 0x0, symName: __ZNSt3__127__do_deallocate_handle_sizeB7v160006IJEEEvPvmDpT_, symObjAddr: 0xA1C, symBinAddr: 0x1000034C8, symSize: 0x28 }
  - { offsetInCU: 0x662C, offset: 0x662C, size: 0x8, addend: 0x0, symName: __ZNSt3__124__libcpp_operator_deleteB7v160006IJPvEEEvDpT_, symObjAddr: 0xA44, symBinAddr: 0x1000034F0, symSize: 0x24 }
  - { offsetInCU: 0x6661, offset: 0x6661, size: 0x8, addend: 0x0, symName: __ZNSt3__13maxB7v160006ImEERKT_S3_S3_, symObjAddr: 0x10A8, symBinAddr: 0x100003B54, symSize: 0x2C }
  - { offsetInCU: 0x66A4, offset: 0x66A4, size: 0x8, addend: 0x0, symName: __ZNSt3__13minB7v160006ImEERKT_S3_S3_, symObjAddr: 0x10D4, symBinAddr: 0x100003B80, symSize: 0x2C }
  - { offsetInCU: 0x68E8, offset: 0x68E8, size: 0x8, addend: 0x0, symName: __ZNSt3__13minB7v160006ImNS_6__lessImmEEEERKT_S5_S5_T0_, symObjAddr: 0x1160, symBinAddr: 0x100003C0C, symSize: 0x54 }
  - { offsetInCU: 0x697D, offset: 0x697D, size: 0x8, addend: 0x0, symName: __ZNSt3__120__throw_length_errorB7v160006EPKc, symObjAddr: 0x123C, symBinAddr: 0x100003CE8, symSize: 0x64 }
  - { offsetInCU: 0x69A5, offset: 0x69A5, size: 0x8, addend: 0x0, symName: __ZNSt3__13maxB7v160006ImNS_6__lessImmEEEERKT_S5_S5_T0_, symObjAddr: 0x1320, symBinAddr: 0x100003DCC, symSize: 0x54 }
  - { offsetInCU: 0x69FF, offset: 0x69FF, size: 0x8, addend: 0x0, symName: __ZNSt3__119__allocate_at_leastB7v160006INS_9allocatorINS_4pairIiiEEEEEENS_19__allocation_resultINS_16allocator_traitsIT_E7pointerEEERS7_m, symObjAddr: 0x1484, symBinAddr: 0x100003F30, symSize: 0x40 }
  - { offsetInCU: 0x6A42, offset: 0x6A42, size: 0x8, addend: 0x0, symName: __ZNSt3__117__libcpp_allocateB7v160006Emm, symObjAddr: 0x1608, symBinAddr: 0x1000040B4, symSize: 0x28 }
  - { offsetInCU: 0x6A7F, offset: 0x6A7F, size: 0x8, addend: 0x0, symName: __ZNSt3__121__libcpp_operator_newB7v160006IJmEEEPvDpT_, symObjAddr: 0x1630, symBinAddr: 0x1000040DC, symSize: 0x24 }
  - { offsetInCU: 0x6AB8, offset: 0x6AB8, size: 0x8, addend: 0x0, symName: __ZNSt3__142__uninitialized_allocator_move_if_noexceptB7v160006INS_9allocatorINS_4pairIiiEEEENS_16reverse_iteratorIPS3_EES7_S7_EET2_RT_T0_T1_S8_, symObjAddr: 0x16B8, symBinAddr: 0x100004164, symSize: 0x12C }
  - { offsetInCU: 0x6B58, offset: 0x6B58, size: 0x8, addend: 0x0, symName: __ZNSt3__14swapB7v160006IPNS_4pairIiiEEEENS_9enable_ifIXaasr21is_move_constructibleIT_EE5valuesr18is_move_assignableIS5_EE5valueEvE4typeERS5_S8_, symObjAddr: 0x1830, symBinAddr: 0x1000042DC, symSize: 0x3C }
  - { offsetInCU: 0x6BA9, offset: 0x6BA9, size: 0x8, addend: 0x0, symName: __ZNSt3__125__debug_db_invalidate_allB7v160006INS_6vectorINS_4pairIiiEENS_9allocatorIS3_EEEEEEvPT_, symObjAddr: 0x1918, symBinAddr: 0x1000043C4, symSize: 0x10 }
  - { offsetInCU: 0x6BDA, offset: 0x6BDA, size: 0x8, addend: 0x0, symName: __ZNSt3__122__make_exception_guardB7v160006INS_29_AllocatorDestroyRangeReverseINS_9allocatorINS_4pairIiiEEEENS_16reverse_iteratorIPS4_EEEEEENS_28__exception_guard_exceptionsIT_EESB_, symObjAddr: 0x1928, symBinAddr: 0x1000043D4, symSize: 0x4C }
  - { offsetInCU: 0x6C10, offset: 0x6C10, size: 0x8, addend: 0x0, symName: __ZNSt3__1neB7v160006IPNS_4pairIiiEES3_EEbRKNS_16reverse_iteratorIT_EERKNS4_IT0_EE, symObjAddr: 0x19B8, symBinAddr: 0x100004464, symSize: 0x48 }
  - { offsetInCU: 0x6C5C, offset: 0x6C5C, size: 0x8, addend: 0x0, symName: __ZNSt3__112__to_addressB7v160006INS_16reverse_iteratorIPNS_4pairIiiEEEEvEENS_5decayIDTclsr19__to_address_helperIT_EE6__callclsr3stdE7declvalIRKS7_EEEEE4typeES9_, symObjAddr: 0x1A00, symBinAddr: 0x1000044AC, symSize: 0x24 }
  - { offsetInCU: 0x6CBB, offset: 0x6CBB, size: 0x8, addend: 0x0, symName: __ZNSt3__119__allocator_destroyB7v160006INS_9allocatorINS_4pairIiiEEEENS_16reverse_iteratorINS5_IPS3_EEEES8_EEvRT_T0_T1_, symObjAddr: 0x1CB0, symBinAddr: 0x10000475C, symSize: 0x70 }
  - { offsetInCU: 0x6D20, offset: 0x6D20, size: 0x8, addend: 0x0, symName: __ZNSt3__1neB7v160006INS_16reverse_iteratorIPNS_4pairIiiEEEES5_EEbRKNS1_IT_EERKNS1_IT0_EE, symObjAddr: 0x1D5C, symBinAddr: 0x100004808, symSize: 0x60 }
  - { offsetInCU: 0x6D6C, offset: 0x6D6C, size: 0x8, addend: 0x0, symName: __ZNSt3__112__to_addressB7v160006INS_16reverse_iteratorINS1_IPNS_4pairIiiEEEEEEvEENS_5decayIDTclsr19__to_address_helperIT_EE6__callclsr3stdE7declvalIRKS8_EEEEE4typeESA_, symObjAddr: 0x1DBC, symBinAddr: 0x100004868, symSize: 0x24 }
  - { offsetInCU: 0x6DCB, offset: 0x6DCB, size: 0x8, addend: 0x0, symName: __ZNSt3__111__sort_implB7v160006INS_17_ClassicAlgPolicyENS_11__wrap_iterIPNS_4pairIiiEEEEPFbS4_S4_EEEvT0_S9_RT1_, symObjAddr: 0x21B8, symBinAddr: 0x100004C64, symSize: 0x84 }
  - { offsetInCU: 0x6E72, offset: 0x6E72, size: 0x8, addend: 0x0, symName: __ZNSt3__123__debug_randomize_rangeB7v160006INS_17_ClassicAlgPolicyENS_11__wrap_iterIPNS_4pairIiiEEEES6_EEvT0_T1_, symObjAddr: 0x223C, symBinAddr: 0x100004CE8, symSize: 0x14 }
  - { offsetInCU: 0x6EC3, offset: 0x6EC3, size: 0x8, addend: 0x0, symName: __ZNSt3__16__sortIRPFbNS_4pairIiiEES2_EPS2_EEvT0_S7_T_, symObjAddr: 0x2250, symBinAddr: 0x100004CFC, symSize: 0x68 }
  - { offsetInCU: 0x6F53, offset: 0x6F53, size: 0x8, addend: 0x0, symName: __ZNSt3__113__unwrap_iterB7v160006INS_11__wrap_iterIPNS_4pairIiiEEEENS_18__unwrap_iter_implIS5_Lb1EEELi0EEEDTclsrT0_8__unwrapclsr3stdE7declvalIT_EEEES9_, symObjAddr: 0x22B8, symBinAddr: 0x100004D64, symSize: 0x2C }
  - { offsetInCU: 0x6F97, offset: 0x6F97, size: 0x8, addend: 0x0, symName: __ZNSt3__17__log2iB7v160006IlEET_S1_, symObjAddr: 0x22E4, symBinAddr: 0x100004D90, symSize: 0x54 }
  - { offsetInCU: 0x7001, offset: 0x7001, size: 0x8, addend: 0x0, symName: __ZNSt3__112__libcpp_clzB7v160006Em, symObjAddr: 0x2C10, symBinAddr: 0x1000056BC, symSize: 0x1C }
  - { offsetInCU: 0x70C7, offset: 0x70C7, size: 0x8, addend: 0x0, symName: __ZNSt3__124__sort3_maybe_branchlessB7v160006INS_17_ClassicAlgPolicyERPFbNS_4pairIiiEES3_EPS3_EENS_9enable_ifIXntsr21__use_branchless_sortIT0_T1_EE5valueEvE4typeESA_SA_SA_S9_, symObjAddr: 0x2C60, symBinAddr: 0x10000570C, symSize: 0x3C }
  - { offsetInCU: 0x7138, offset: 0x7138, size: 0x8, addend: 0x0, symName: __ZNSt3__124__sort4_maybe_branchlessB7v160006INS_17_ClassicAlgPolicyERPFbNS_4pairIiiEES3_EPS3_EENS_9enable_ifIXntsr21__use_branchless_sortIT0_T1_EE5valueEvE4typeESA_SA_SA_SA_S9_, symObjAddr: 0x2C9C, symBinAddr: 0x100005748, symSize: 0x44 }
  - { offsetInCU: 0x71BD, offset: 0x71BD, size: 0x8, addend: 0x0, symName: __ZNSt3__124__sort5_maybe_branchlessB7v160006INS_17_ClassicAlgPolicyERPFbNS_4pairIiiEES3_EPS3_EENS_9enable_ifIXntsr21__use_branchless_sortIT0_T1_EE5valueEvE4typeESA_SA_SA_SA_SA_S9_, symObjAddr: 0x2CE0, symBinAddr: 0x10000578C, symSize: 0x4C }
  - { offsetInCU: 0x7251, offset: 0x7251, size: 0x8, addend: 0x0, symName: __ZNSt3__114__partial_sortB7v160006INS_17_ClassicAlgPolicyERPFbNS_4pairIiiEES3_EPS3_S7_EET1_S8_S8_T2_RT0_, symObjAddr: 0x2EA4, symBinAddr: 0x100005950, symSize: 0x94 }
  - { offsetInCU: 0x72D9, offset: 0x72D9, size: 0x8, addend: 0x0, symName: __ZNSt3__119__sort5_wrap_policyB7v160006INS_17_ClassicAlgPolicyERPFbNS_4pairIiiEES3_EPS3_EEjT1_S8_S8_S8_S8_T0_, symObjAddr: 0x2F38, symBinAddr: 0x1000059E4, symSize: 0x54 }
  - { offsetInCU: 0x737F, offset: 0x737F, size: 0x8, addend: 0x0, symName: __ZNSt3__17__sort3B7v160006INS_17_ClassicAlgPolicyERPFbNS_4pairIiiEES3_EPS3_EEjT1_S8_S8_T0_, symObjAddr: 0x2F8C, symBinAddr: 0x100005A38, symSize: 0x1D0 }
  - { offsetInCU: 0x73FE, offset: 0x73FE, size: 0x8, addend: 0x0, symName: __ZNSt3__19iter_swapB7v160006IPNS_4pairIiiEES3_EEvT_T0_, symObjAddr: 0x34D4, symBinAddr: 0x100005F80, symSize: 0x2C }
  - { offsetInCU: 0x7446, offset: 0x7446, size: 0x8, addend: 0x0, symName: __ZNSt3__14swapB7v160006IiiEENS_9enable_ifIXaasr14__is_swappableIT_EE5valuesr14__is_swappableIT0_EE5valueEvE4typeERNS_4pairIS2_S3_EES8_, symObjAddr: 0x3500, symBinAddr: 0x100005FAC, symSize: 0x2C }
  - { offsetInCU: 0x7495, offset: 0x7495, size: 0x8, addend: 0x0, symName: __ZNSt3__14swapB7v160006IiEENS_9enable_ifIXaasr21is_move_constructibleIT_EE5valuesr18is_move_assignableIS2_EE5valueEvE4typeERS2_S5_, symObjAddr: 0x3570, symBinAddr: 0x10000601C, symSize: 0x3C }
  - { offsetInCU: 0x74E6, offset: 0x74E6, size: 0x8, addend: 0x0, symName: __ZNSt3__17__sort4B7v160006INS_17_ClassicAlgPolicyERPFbNS_4pairIiiEES3_EPS3_EEjT1_S8_S8_S8_T0_, symObjAddr: 0x35AC, symBinAddr: 0x100006058, symSize: 0x138 }
  - { offsetInCU: 0x7597, offset: 0x7597, size: 0x8, addend: 0x0, symName: __ZNSt3__123__debug_randomize_rangeB7v160006INS_17_ClassicAlgPolicyEPNS_4pairIiiEES4_EEvT0_T1_, symObjAddr: 0x3758, symBinAddr: 0x100006204, symSize: 0x14 }
  - { offsetInCU: 0x75E8, offset: 0x75E8, size: 0x8, addend: 0x0, symName: __ZNSt3__119__partial_sort_implB7v160006INS_17_ClassicAlgPolicyERPFbNS_4pairIiiEES3_EPS3_S7_EET1_S8_S8_T2_OT0_, symObjAddr: 0x376C, symBinAddr: 0x100006218, symSize: 0x12C }
  - { offsetInCU: 0x767E, offset: 0x767E, size: 0x8, addend: 0x0, symName: __ZNSt3__111__make_heapB7v160006INS_17_ClassicAlgPolicyERPFbNS_4pairIiiEES3_EPS3_EEvT1_S8_OT0_, symObjAddr: 0x3898, symBinAddr: 0x100006344, symSize: 0xB8 }
  - { offsetInCU: 0x7720, offset: 0x7720, size: 0x8, addend: 0x0, symName: __ZNSt3__111__sort_heapB7v160006INS_17_ClassicAlgPolicyERPFbNS_4pairIiiEES3_EPS3_EEvT1_S8_OT0_, symObjAddr: 0x3BC0, symBinAddr: 0x10000666C, symSize: 0x90 }
  - { offsetInCU: 0x77B4, offset: 0x77B4, size: 0x8, addend: 0x0, symName: __ZNSt3__110__pop_heapB7v160006INS_17_ClassicAlgPolicyEPFbNS_4pairIiiEES3_EPS3_EEvT1_S7_RT0_NS_15iterator_traitsIS7_E15difference_typeE, symObjAddr: 0x3C50, symBinAddr: 0x1000066FC, symSize: 0xF4 }
  - { offsetInCU: 0x7864, offset: 0x7864, size: 0x8, addend: 0x0, symName: __ZNSt3__19__sift_upB7v160006INS_17_ClassicAlgPolicyERPFbNS_4pairIiiEES3_EPS3_EEvT1_S8_OT0_NS_15iterator_traitsIS8_E15difference_typeE, symObjAddr: 0x3E5C, symBinAddr: 0x100006908, symSize: 0x150 }
  - { offsetInCU: 0x7914, offset: 0x7914, size: 0x8, addend: 0x0, symName: __ZNSt3__17__sort5IRPFbNS_4pairIiiEES2_EPS2_EEjT0_S7_S7_S7_S7_T_, symObjAddr: 0x3FAC, symBinAddr: 0x100006A58, symSize: 0x19C }
  - { offsetInCU: 0x7A12, offset: 0x7A12, size: 0x8, addend: 0x0, symName: __ZNSt3__112__to_addressB7v160006INS_11__wrap_iterIPNS_4pairIiiEEEEvEENS_5decayIDTclsr19__to_address_helperIT_EE6__callclsr3stdE7declvalIRKS7_EEEEE4typeES9_, symObjAddr: 0x4170, symBinAddr: 0x100006C1C, symSize: 0x24 }
  - { offsetInCU: 0x7AF1, offset: 0x7AF1, size: 0x8, addend: 0x0, symName: __ZNSt3__122__make_exception_guardB7v160006INS_6vectorIiNS_9allocatorIiEEE16__destroy_vectorEEENS_28__exception_guard_exceptionsIT_EES7_, symObjAddr: 0x4324, symBinAddr: 0x100006DD0, symSize: 0x40 }
  - { offsetInCU: 0x7B26, offset: 0x7B26, size: 0x8, addend: 0x0, symName: __ZNSt3__119__debug_db_insert_cB7v160006INS_6vectorIiNS_9allocatorIiEEEEEEvPT_, symObjAddr: 0x4398, symBinAddr: 0x100006E44, symSize: 0x10 }
  - { offsetInCU: 0x7B57, offset: 0x7B57, size: 0x8, addend: 0x0, symName: __ZNSt3__119__allocate_at_leastB7v160006INS_9allocatorIiEEEENS_19__allocation_resultINS_16allocator_traitsIT_E7pointerEEERS5_m, symObjAddr: 0x4720, symBinAddr: 0x1000071CC, symSize: 0x40 }
  - { offsetInCU: 0x7B9A, offset: 0x7B9A, size: 0x8, addend: 0x0, symName: __ZNSt3__112__to_addressB7v160006IiEEPT_S2_, symObjAddr: 0x4A44, symBinAddr: 0x1000074F0, symSize: 0x14 }
  - { offsetInCU: 0x7BCF, offset: 0x7BCF, size: 0x8, addend: 0x0, symName: __ZNSt3__118__debug_db_erase_cB7v160006INS_6vectorIiNS_9allocatorIiEEEEEEvPT_, symObjAddr: 0x4D70, symBinAddr: 0x10000781C, symSize: 0x10 }
  - { offsetInCU: 0x7F75, offset: 0x7F75, size: 0x8, addend: 0x0, symName: __ZSt28__throw_bad_array_new_lengthB7v160006v, symObjAddr: 0x15D4, symBinAddr: 0x100004080, symSize: 0x34 }
  - { offsetInCU: 0x8349, offset: 0x8349, size: 0x8, addend: 0x0, symName: __ZNSt3__16vectorINS_4pairIiiEENS_9allocatorIS2_EEE26__swap_out_circular_bufferERNS_14__split_bufferIS2_RS4_EE, symObjAddr: 0xEE8, symBinAddr: 0x100003994, symSize: 0x118 }
  - { offsetInCU: 0xA5FB, offset: 0xA5FB, size: 0x8, addend: 0x0, symName: __Z3cmpNSt3__14pairIiiEES1_, symObjAddr: 0x0, symBinAddr: 0x100002AAC, symSize: 0x74 }
  - { offsetInCU: 0xA635, offset: 0xA635, size: 0x8, addend: 0x0, symName: _main, symObjAddr: 0x74, symBinAddr: 0x100002B20, symSize: 0x140 }
  - { offsetInCU: 0xA6BF, offset: 0xA6BF, size: 0x8, addend: 0x0, symName: __ZNSt3__16vectorINS_4pairIiiEENS_9allocatorIS2_EEEC1B7v160006Ev, symObjAddr: 0x1B4, symBinAddr: 0x100002C60, symSize: 0x2C }
  - { offsetInCU: 0xA6E7, offset: 0xA6E7, size: 0x8, addend: 0x0, symName: __ZNSt3__16vectorINS_4pairIiiEENS_9allocatorIS2_EEE9push_backB7v160006EOS2_, symObjAddr: 0x1E0, symBinAddr: 0x100002C8C, symSize: 0x6C }
  - { offsetInCU: 0xA71C, offset: 0xA71C, size: 0x8, addend: 0x0, symName: __ZNSt3__16vectorINS_4pairIiiEENS_9allocatorIS2_EEE5beginB7v160006Ev, symObjAddr: 0x2C8, symBinAddr: 0x100002D74, symSize: 0x30 }
  - { offsetInCU: 0xA742, offset: 0xA742, size: 0x8, addend: 0x0, symName: __ZNSt3__16vectorINS_4pairIiiEENS_9allocatorIS2_EEE3endB7v160006Ev, symObjAddr: 0x2F8, symBinAddr: 0x100002DA4, symSize: 0x30 }
  - { offsetInCU: 0xA768, offset: 0xA768, size: 0x8, addend: 0x0, symName: __ZNSt3__16vectorIiNS_9allocatorIiEEEC1Em, symObjAddr: 0x328, symBinAddr: 0x100002DD4, symSize: 0x34 }
  - { offsetInCU: 0xA7A1, offset: 0xA7A1, size: 0x8, addend: 0x0, symName: __ZNSt3__16vectorIiNS_9allocatorIiEEED1B7v160006Ev, symObjAddr: 0x35C, symBinAddr: 0x100002E08, symSize: 0x2C }
  - { offsetInCU: 0xA7C9, offset: 0xA7C9, size: 0x8, addend: 0x0, symName: __ZNSt3__16vectorINS_4pairIiiEENS_9allocatorIS2_EEED1B7v160006Ev, symObjAddr: 0x388, symBinAddr: 0x100002E34, symSize: 0x2C }
  - { offsetInCU: 0xA7F1, offset: 0xA7F1, size: 0x8, addend: 0x0, symName: __ZNSt3__14pairIiiEC1B7v160006IRiS3_LPv0EEEOT_OT0_, symObjAddr: 0x3B4, symBinAddr: 0x100002E60, symSize: 0x3C }
  - { offsetInCU: 0xA84D, offset: 0xA84D, size: 0x8, addend: 0x0, symName: __ZNSt3__14pairIiiEC2B7v160006IRiS3_LPv0EEEOT_OT0_, symObjAddr: 0x3F0, symBinAddr: 0x100002E9C, symSize: 0x34 }
  - { offsetInCU: 0xA8A9, offset: 0xA8A9, size: 0x8, addend: 0x0, symName: __ZNSt3__16vectorINS_4pairIiiEENS_9allocatorIS2_EEEC2B7v160006Ev, symObjAddr: 0x424, symBinAddr: 0x100002ED0, symSize: 0x58 }
  - { offsetInCU: 0xA8DB, offset: 0xA8DB, size: 0x8, addend: 0x0, symName: __ZNSt3__117__compressed_pairIPNS_4pairIiiEENS_9allocatorIS2_EEEC1B7v160006IDnNS_18__default_init_tagEEEOT_OT0_, symObjAddr: 0x47C, symBinAddr: 0x100002F28, symSize: 0x3C }
  - { offsetInCU: 0xA931, offset: 0xA931, size: 0x8, addend: 0x0, symName: __ZNSt3__117__compressed_pairIPNS_4pairIiiEENS_9allocatorIS2_EEEC2B7v160006IDnNS_18__default_init_tagEEEOT_OT0_, symObjAddr: 0x4D4, symBinAddr: 0x100002F80, symSize: 0x40 }
  - { offsetInCU: 0xA987, offset: 0xA987, size: 0x8, addend: 0x0, symName: __ZNSt3__122__compressed_pair_elemIPNS_4pairIiiEELi0ELb0EEC2B7v160006IDnvEEOT_, symObjAddr: 0x514, symBinAddr: 0x100002FC0, symSize: 0x1C }
  - { offsetInCU: 0xA9C7, offset: 0xA9C7, size: 0x8, addend: 0x0, symName: __ZNSt3__122__compressed_pair_elemINS_9allocatorINS_4pairIiiEEEELi1ELb1EEC2B7v160006ENS_18__default_init_tagE, symObjAddr: 0x530, symBinAddr: 0x100002FDC, symSize: 0x2C }
  - { offsetInCU: 0xA9F9, offset: 0xA9F9, size: 0x8, addend: 0x0, symName: __ZNSt3__19allocatorINS_4pairIiiEEEC2B7v160006Ev, symObjAddr: 0x55C, symBinAddr: 0x100003008, symSize: 0x2C }
  - { offsetInCU: 0xAA21, offset: 0xAA21, size: 0x8, addend: 0x0, symName: __ZNSt3__116__non_trivial_ifILb1ENS_9allocatorINS_4pairIiiEEEEEC2B7v160006Ev, symObjAddr: 0x588, symBinAddr: 0x100003034, symSize: 0x14 }
  - { offsetInCU: 0xAA49, offset: 0xAA49, size: 0x8, addend: 0x0, symName: __ZNSt3__16vectorINS_4pairIiiEENS_9allocatorIS2_EEED2B7v160006Ev, symObjAddr: 0x59C, symBinAddr: 0x100003048, symSize: 0x44 }
  - { offsetInCU: 0xAA71, offset: 0xAA71, size: 0x8, addend: 0x0, symName: __ZNSt3__16vectorINS_4pairIiiEENS_9allocatorIS2_EEE16__destroy_vectorC1ERS5_, symObjAddr: 0x5E0, symBinAddr: 0x10000308C, symSize: 0x34 }
  - { offsetInCU: 0xAAA8, offset: 0xAAA8, size: 0x8, addend: 0x0, symName: __ZNSt3__16vectorINS_4pairIiiEENS_9allocatorIS2_EEE16__destroy_vectorclB7v160006Ev, symObjAddr: 0x614, symBinAddr: 0x1000030C0, symSize: 0x9C }
  - { offsetInCU: 0xAACC, offset: 0xAACC, size: 0x8, addend: 0x0, symName: __ZNSt3__16vectorINS_4pairIiiEENS_9allocatorIS2_EEE16__destroy_vectorC2ERS5_, symObjAddr: 0x6B0, symBinAddr: 0x10000315C, symSize: 0x20 }
  - { offsetInCU: 0xAB03, offset: 0xAB03, size: 0x8, addend: 0x0, symName: __ZNKSt3__16vectorINS_4pairIiiEENS_9allocatorIS2_EEE17__annotate_deleteB7v160006Ev, symObjAddr: 0x6D0, symBinAddr: 0x10000317C, symSize: 0xB8 }
  - { offsetInCU: 0xAB27, offset: 0xAB27, size: 0x8, addend: 0x0, symName: __ZNSt3__16vectorINS_4pairIiiEENS_9allocatorIS2_EEE7__clearB7v160006Ev, symObjAddr: 0x798, symBinAddr: 0x100003244, symSize: 0x28 }
  - { offsetInCU: 0xAB4B, offset: 0xAB4B, size: 0x8, addend: 0x0, symName: __ZNSt3__116allocator_traitsINS_9allocatorINS_4pairIiiEEEEE10deallocateB7v160006ERS4_PS3_m, symObjAddr: 0x7C0, symBinAddr: 0x10000326C, symSize: 0x34 }
  - { offsetInCU: 0xAB8C, offset: 0xAB8C, size: 0x8, addend: 0x0, symName: __ZNSt3__16vectorINS_4pairIiiEENS_9allocatorIS2_EEE7__allocB7v160006Ev, symObjAddr: 0x7F4, symBinAddr: 0x1000032A0, symSize: 0x28 }
  - { offsetInCU: 0xABB0, offset: 0xABB0, size: 0x8, addend: 0x0, symName: __ZNKSt3__16vectorINS_4pairIiiEENS_9allocatorIS2_EEE8capacityB7v160006Ev, symObjAddr: 0x81C, symBinAddr: 0x1000032C8, symSize: 0x40 }
  - { offsetInCU: 0xABD4, offset: 0xABD4, size: 0x8, addend: 0x0, symName: __ZNKSt3__16vectorINS_4pairIiiEENS_9allocatorIS2_EEE31__annotate_contiguous_containerB7v160006EPKvS7_S7_S7_, symObjAddr: 0x85C, symBinAddr: 0x100003308, symSize: 0x20 }
  - { offsetInCU: 0xAC24, offset: 0xAC24, size: 0x8, addend: 0x0, symName: __ZNKSt3__16vectorINS_4pairIiiEENS_9allocatorIS2_EEE4dataB7v160006Ev, symObjAddr: 0x87C, symBinAddr: 0x100003328, symSize: 0x28 }
  - { offsetInCU: 0xAC48, offset: 0xAC48, size: 0x8, addend: 0x0, symName: __ZNKSt3__16vectorINS_4pairIiiEENS_9allocatorIS2_EEE4sizeB7v160006Ev, symObjAddr: 0x8A4, symBinAddr: 0x100003350, symSize: 0x28 }
  - { offsetInCU: 0xAC6C, offset: 0xAC6C, size: 0x8, addend: 0x0, symName: __ZNSt3__16vectorINS_4pairIiiEENS_9allocatorIS2_EEE22__base_destruct_at_endB7v160006EPS2_, symObjAddr: 0x8E0, symBinAddr: 0x10000338C, symSize: 0x8C }
  - { offsetInCU: 0xACAE, offset: 0xACAE, size: 0x8, addend: 0x0, symName: __ZNSt3__116allocator_traitsINS_9allocatorINS_4pairIiiEEEEE7destroyB7v160006IS3_vEEvRS4_PT_, symObjAddr: 0x96C, symBinAddr: 0x100003418, symSize: 0x2C }
  - { offsetInCU: 0xACEA, offset: 0xACEA, size: 0x8, addend: 0x0, symName: __ZNSt3__19allocatorINS_4pairIiiEEE7destroyB7v160006EPS2_, symObjAddr: 0x998, symBinAddr: 0x100003444, symSize: 0x14 }
  - { offsetInCU: 0xAD1C, offset: 0xAD1C, size: 0x8, addend: 0x0, symName: __ZNSt3__19allocatorINS_4pairIiiEEE10deallocateB7v160006EPS2_m, symObjAddr: 0x9AC, symBinAddr: 0x100003458, symSize: 0x40 }
  - { offsetInCU: 0xAD5C, offset: 0xAD5C, size: 0x8, addend: 0x0, symName: __ZNSt3__117__compressed_pairIPNS_4pairIiiEENS_9allocatorIS2_EEE6secondB7v160006Ev, symObjAddr: 0xA68, symBinAddr: 0x100003514, symSize: 0x24 }
  - { offsetInCU: 0xAD80, offset: 0xAD80, size: 0x8, addend: 0x0, symName: __ZNSt3__122__compressed_pair_elemINS_9allocatorINS_4pairIiiEEEELi1ELb1EE5__getB7v160006Ev, symObjAddr: 0xA8C, symBinAddr: 0x100003538, symSize: 0x14 }
  - { offsetInCU: 0xADA4, offset: 0xADA4, size: 0x8, addend: 0x0, symName: __ZNKSt3__16vectorINS_4pairIiiEENS_9allocatorIS2_EEE9__end_capB7v160006Ev, symObjAddr: 0xAA0, symBinAddr: 0x10000354C, symSize: 0x28 }
  - { offsetInCU: 0xADC8, offset: 0xADC8, size: 0x8, addend: 0x0, symName: __ZNKSt3__117__compressed_pairIPNS_4pairIiiEENS_9allocatorIS2_EEE5firstB7v160006Ev, symObjAddr: 0xAC8, symBinAddr: 0x100003574, symSize: 0x24 }
  - { offsetInCU: 0xADEC, offset: 0xADEC, size: 0x8, addend: 0x0, symName: __ZNKSt3__122__compressed_pair_elemIPNS_4pairIiiEELi0ELb0EE5__getB7v160006Ev, symObjAddr: 0xAEC, symBinAddr: 0x100003598, symSize: 0x14 }
  - { offsetInCU: 0xAE10, offset: 0xAE10, size: 0x8, addend: 0x0, symName: __ZNSt3__16vectorINS_4pairIiiEENS_9allocatorIS2_EEE9__end_capB7v160006Ev, symObjAddr: 0xB00, symBinAddr: 0x1000035AC, symSize: 0x28 }
  - { offsetInCU: 0xAE34, offset: 0xAE34, size: 0x8, addend: 0x0, symName: __ZNSt3__16vectorINS_4pairIiiEENS_9allocatorIS2_EEE22__construct_one_at_endB7v160006IJS2_EEEvDpOT_, symObjAddr: 0xB28, symBinAddr: 0x1000035D4, symSize: 0x90 }
  - { offsetInCU: 0xAE81, offset: 0xAE81, size: 0x8, addend: 0x0, symName: __ZNSt3__16vectorINS_4pairIiiEENS_9allocatorIS2_EEE21__push_back_slow_pathIS2_EEvOT_, symObjAddr: 0xBB8, symBinAddr: 0x100003664, symSize: 0xD8 }
  - { offsetInCU: 0xAEDD, offset: 0xAEDD, size: 0x8, addend: 0x0, symName: __ZNSt3__117__compressed_pairIPNS_4pairIiiEENS_9allocatorIS2_EEE5firstB7v160006Ev, symObjAddr: 0xC90, symBinAddr: 0x10000373C, symSize: 0x24 }
  - { offsetInCU: 0xAF01, offset: 0xAF01, size: 0x8, addend: 0x0, symName: __ZNSt3__122__compressed_pair_elemIPNS_4pairIiiEELi0ELb0EE5__getB7v160006Ev, symObjAddr: 0xCB4, symBinAddr: 0x100003760, symSize: 0x14 }
  - { offsetInCU: 0xAF3E, offset: 0xAF3E, size: 0x8, addend: 0x0, symName: __ZNSt3__16vectorINS_4pairIiiEENS_9allocatorIS2_EEE21_ConstructTransactionC1B7v160006ERS5_m, symObjAddr: 0xCC8, symBinAddr: 0x100003774, symSize: 0x3C }
  - { offsetInCU: 0xAF84, offset: 0xAF84, size: 0x8, addend: 0x0, symName: __ZNSt3__116allocator_traitsINS_9allocatorINS_4pairIiiEEEEE9constructB7v160006IS3_JS3_EvEEvRS4_PT_DpOT0_, symObjAddr: 0xD04, symBinAddr: 0x1000037B0, symSize: 0x34 }
  - { offsetInCU: 0xAFDA, offset: 0xAFDA, size: 0x8, addend: 0x0, symName: __ZNSt3__16vectorINS_4pairIiiEENS_9allocatorIS2_EEE21_ConstructTransactionD1B7v160006Ev, symObjAddr: 0xD38, symBinAddr: 0x1000037E4, symSize: 0x2C }
  - { offsetInCU: 0xB002, offset: 0xB002, size: 0x8, addend: 0x0, symName: __ZNSt3__16vectorINS_4pairIiiEENS_9allocatorIS2_EEE21_ConstructTransactionC2B7v160006ERS5_m, symObjAddr: 0xD64, symBinAddr: 0x100003810, symSize: 0x44 }
  - { offsetInCU: 0xB048, offset: 0xB048, size: 0x8, addend: 0x0, symName: __ZNSt3__19allocatorINS_4pairIiiEEE9constructB7v160006IS2_JS2_EEEvPT_DpOT0_, symObjAddr: 0xDA8, symBinAddr: 0x100003854, symSize: 0x28 }
  - { offsetInCU: 0xB09C, offset: 0xB09C, size: 0x8, addend: 0x0, symName: __ZNSt3__16vectorINS_4pairIiiEENS_9allocatorIS2_EEE21_ConstructTransactionD2B7v160006Ev, symObjAddr: 0xDD0, symBinAddr: 0x10000387C, symSize: 0x20 }
  - { offsetInCU: 0xB0C4, offset: 0xB0C4, size: 0x8, addend: 0x0, symName: __ZNKSt3__16vectorINS_4pairIiiEENS_9allocatorIS2_EEE11__recommendB7v160006Em, symObjAddr: 0xDF0, symBinAddr: 0x10000389C, symSize: 0xB4 }
  - { offsetInCU: 0xB117, offset: 0xB117, size: 0x8, addend: 0x0, symName: __ZNSt3__114__split_bufferINS_4pairIiiEERNS_9allocatorIS2_EEEC1EmmS5_, symObjAddr: 0xEA4, symBinAddr: 0x100003950, symSize: 0x44 }
  - { offsetInCU: 0xB16B, offset: 0xB16B, size: 0x8, addend: 0x0, symName: __ZNSt3__114__split_bufferINS_4pairIiiEERNS_9allocatorIS2_EEED1Ev, symObjAddr: 0x1000, symBinAddr: 0x100003AAC, symSize: 0x2C }
  - { offsetInCU: 0xB195, offset: 0xB195, size: 0x8, addend: 0x0, symName: __ZNKSt3__16vectorINS_4pairIiiEENS_9allocatorIS2_EEE8max_sizeEv, symObjAddr: 0x102C, symBinAddr: 0x100003AD8, symSize: 0x60 }
  - { offsetInCU: 0xB1BB, offset: 0xB1BB, size: 0x8, addend: 0x0, symName: __ZNKSt3__16vectorINS_4pairIiiEENS_9allocatorIS2_EEE20__throw_length_errorB7v160006Ev, symObjAddr: 0x108C, symBinAddr: 0x100003B38, symSize: 0x1C }
  - { offsetInCU: 0xB1E9, offset: 0xB1E9, size: 0x8, addend: 0x0, symName: __ZNSt3__116allocator_traitsINS_9allocatorINS_4pairIiiEEEEE8max_sizeB7v160006IS4_vEEmRKS4_, symObjAddr: 0x1100, symBinAddr: 0x100003BAC, symSize: 0x24 }
  - { offsetInCU: 0xB216, offset: 0xB216, size: 0x8, addend: 0x0, symName: __ZNKSt3__16vectorINS_4pairIiiEENS_9allocatorIS2_EEE7__allocB7v160006Ev, symObjAddr: 0x1124, symBinAddr: 0x100003BD0, symSize: 0x28 }
  - { offsetInCU: 0xB23B, offset: 0xB23B, size: 0x8, addend: 0x0, symName: __ZNSt3__114numeric_limitsIlE3maxB7v160006Ev, symObjAddr: 0x114C, symBinAddr: 0x100003BF8, symSize: 0x14 }
  - { offsetInCU: 0xB262, offset: 0xB262, size: 0x8, addend: 0x0, symName: __ZNKSt3__16__lessImmEclB7v160006ERKmS3_, symObjAddr: 0x11B4, symBinAddr: 0x100003C60, symSize: 0x34 }
  - { offsetInCU: 0xB2A2, offset: 0xB2A2, size: 0x8, addend: 0x0, symName: __ZNKSt3__19allocatorINS_4pairIiiEEE8max_sizeB7v160006Ev, symObjAddr: 0x11E8, symBinAddr: 0x100003C94, symSize: 0x14 }
  - { offsetInCU: 0xB2C6, offset: 0xB2C6, size: 0x8, addend: 0x0, symName: __ZNKSt3__117__compressed_pairIPNS_4pairIiiEENS_9allocatorIS2_EEE6secondB7v160006Ev, symObjAddr: 0x11FC, symBinAddr: 0x100003CA8, symSize: 0x24 }
  - { offsetInCU: 0xB2EA, offset: 0xB2EA, size: 0x8, addend: 0x0, symName: __ZNKSt3__122__compressed_pair_elemINS_9allocatorINS_4pairIiiEEEELi1ELb1EE5__getB7v160006Ev, symObjAddr: 0x1220, symBinAddr: 0x100003CCC, symSize: 0x14 }
  - { offsetInCU: 0xB30F, offset: 0xB30F, size: 0x8, addend: 0x0, symName: __ZNSt3__123__libcpp_numeric_limitsIlLb1EE3maxB7v160006Ev, symObjAddr: 0x1234, symBinAddr: 0x100003CE0, symSize: 0x8 }
  - { offsetInCU: 0xB322, offset: 0xB322, size: 0x8, addend: 0x0, symName: __ZNSt12length_errorC1B7v160006EPKc, symObjAddr: 0x12A0, symBinAddr: 0x100003D4C, symSize: 0x34 }
  - { offsetInCU: 0xB358, offset: 0xB358, size: 0x8, addend: 0x0, symName: __ZNSt12length_errorC2B7v160006EPKc, symObjAddr: 0x12D4, symBinAddr: 0x100003D80, symSize: 0x4C }
  - { offsetInCU: 0xB38E, offset: 0xB38E, size: 0x8, addend: 0x0, symName: __ZNSt3__114__split_bufferINS_4pairIiiEERNS_9allocatorIS2_EEEC2EmmS5_, symObjAddr: 0x1374, symBinAddr: 0x100003E20, symSize: 0xD4 }
  - { offsetInCU: 0xB3FF, offset: 0xB3FF, size: 0x8, addend: 0x0, symName: __ZNSt3__117__compressed_pairIPNS_4pairIiiEERNS_9allocatorIS2_EEEC1B7v160006IDnS6_EEOT_OT0_, symObjAddr: 0x1448, symBinAddr: 0x100003EF4, symSize: 0x3C }
  - { offsetInCU: 0xB455, offset: 0xB455, size: 0x8, addend: 0x0, symName: __ZNSt3__114__split_bufferINS_4pairIiiEERNS_9allocatorIS2_EEE7__allocB7v160006Ev, symObjAddr: 0x14C4, symBinAddr: 0x100003F70, symSize: 0x28 }
  - { offsetInCU: 0xB479, offset: 0xB479, size: 0x8, addend: 0x0, symName: __ZNSt3__114__split_bufferINS_4pairIiiEERNS_9allocatorIS2_EEE9__end_capB7v160006Ev, symObjAddr: 0x14EC, symBinAddr: 0x100003F98, symSize: 0x28 }
  - { offsetInCU: 0xB49D, offset: 0xB49D, size: 0x8, addend: 0x0, symName: __ZNSt3__117__compressed_pairIPNS_4pairIiiEERNS_9allocatorIS2_EEEC2B7v160006IDnS6_EEOT_OT0_, symObjAddr: 0x1514, symBinAddr: 0x100003FC0, symSize: 0x48 }
  - { offsetInCU: 0xB4F3, offset: 0xB4F3, size: 0x8, addend: 0x0, symName: __ZNSt3__122__compressed_pair_elemIRNS_9allocatorINS_4pairIiiEEEELi1ELb0EEC2B7v160006IS5_vEEOT_, symObjAddr: 0x155C, symBinAddr: 0x100004008, symSize: 0x20 }
  - { offsetInCU: 0xB533, offset: 0xB533, size: 0x8, addend: 0x0, symName: __ZNSt3__19allocatorINS_4pairIiiEEE8allocateB7v160006Em, symObjAddr: 0x157C, symBinAddr: 0x100004028, symSize: 0x58 }
  - { offsetInCU: 0xB565, offset: 0xB565, size: 0x8, addend: 0x0, symName: __ZNSt3__117__compressed_pairIPNS_4pairIiiEERNS_9allocatorIS2_EEE6secondB7v160006Ev, symObjAddr: 0x1654, symBinAddr: 0x100004100, symSize: 0x28 }
  - { offsetInCU: 0xB589, offset: 0xB589, size: 0x8, addend: 0x0, symName: __ZNSt3__122__compressed_pair_elemIRNS_9allocatorINS_4pairIiiEEEELi1ELb0EE5__getB7v160006Ev, symObjAddr: 0x167C, symBinAddr: 0x100004128, symSize: 0x18 }
  - { offsetInCU: 0xB5AD, offset: 0xB5AD, size: 0x8, addend: 0x0, symName: __ZNSt3__117__compressed_pairIPNS_4pairIiiEERNS_9allocatorIS2_EEE5firstB7v160006Ev, symObjAddr: 0x1694, symBinAddr: 0x100004140, symSize: 0x24 }
  - { offsetInCU: 0xB5D1, offset: 0xB5D1, size: 0x8, addend: 0x0, symName: __ZNSt3__116reverse_iteratorIPNS_4pairIiiEEEC1B7v160006ES3_, symObjAddr: 0x17E4, symBinAddr: 0x100004290, symSize: 0x34 }
  - { offsetInCU: 0xB607, offset: 0xB607, size: 0x8, addend: 0x0, symName: __ZNKSt3__116reverse_iteratorIPNS_4pairIiiEEE4baseB7v160006Ev, symObjAddr: 0x1818, symBinAddr: 0x1000042C4, symSize: 0x18 }
  - { offsetInCU: 0xB62B, offset: 0xB62B, size: 0x8, addend: 0x0, symName: __ZNKSt3__16vectorINS_4pairIiiEENS_9allocatorIS2_EEE14__annotate_newB7v160006Em, symObjAddr: 0x186C, symBinAddr: 0x100004318, symSize: 0xAC }
  - { offsetInCU: 0xB65E, offset: 0xB65E, size: 0x8, addend: 0x0, symName: __ZNSt3__129_AllocatorDestroyRangeReverseINS_9allocatorINS_4pairIiiEEEENS_16reverse_iteratorIPS3_EEEC1B7v160006ERS4_RS7_SA_, symObjAddr: 0x1974, symBinAddr: 0x100004420, symSize: 0x44 }
  - { offsetInCU: 0xB6B3, offset: 0xB6B3, size: 0x8, addend: 0x0, symName: __ZNKSt3__116reverse_iteratorIPNS_4pairIiiEEEdeB7v160006Ev, symObjAddr: 0x1A24, symBinAddr: 0x1000044D0, symSize: 0x28 }
  - { offsetInCU: 0xB6E5, offset: 0xB6E5, size: 0x8, addend: 0x0, symName: __ZNSt3__116reverse_iteratorIPNS_4pairIiiEEEppB7v160006Ev, symObjAddr: 0x1A4C, symBinAddr: 0x1000044F8, symSize: 0x20 }
  - { offsetInCU: 0xB709, offset: 0xB709, size: 0x8, addend: 0x0, symName: __ZNSt3__128__exception_guard_exceptionsINS_29_AllocatorDestroyRangeReverseINS_9allocatorINS_4pairIiiEEEENS_16reverse_iteratorIPS4_EEEEE10__completeB7v160006Ev, symObjAddr: 0x1A6C, symBinAddr: 0x100004518, symSize: 0x1C }
  - { offsetInCU: 0xB72D, offset: 0xB72D, size: 0x8, addend: 0x0, symName: __ZNSt3__128__exception_guard_exceptionsINS_29_AllocatorDestroyRangeReverseINS_9allocatorINS_4pairIiiEEEENS_16reverse_iteratorIPS4_EEEEED1B7v160006Ev, symObjAddr: 0x1A88, symBinAddr: 0x100004534, symSize: 0x2C }
  - { offsetInCU: 0xB755, offset: 0xB755, size: 0x8, addend: 0x0, symName: __ZNSt3__128__exception_guard_exceptionsINS_29_AllocatorDestroyRangeReverseINS_9allocatorINS_4pairIiiEEEENS_16reverse_iteratorIPS4_EEEEEC1B7v160006ES9_, symObjAddr: 0x1AB4, symBinAddr: 0x100004560, symSize: 0x34 }
  - { offsetInCU: 0xB78C, offset: 0xB78C, size: 0x8, addend: 0x0, symName: __ZNSt3__128__exception_guard_exceptionsINS_29_AllocatorDestroyRangeReverseINS_9allocatorINS_4pairIiiEEEENS_16reverse_iteratorIPS4_EEEEEC2B7v160006ES9_, symObjAddr: 0x1AE8, symBinAddr: 0x100004594, symSize: 0x30 }
  - { offsetInCU: 0xB7C3, offset: 0xB7C3, size: 0x8, addend: 0x0, symName: __ZNSt3__129_AllocatorDestroyRangeReverseINS_9allocatorINS_4pairIiiEEEENS_16reverse_iteratorIPS3_EEEC2B7v160006ERS4_RS7_SA_, symObjAddr: 0x1B18, symBinAddr: 0x1000045C4, symSize: 0x38 }
  - { offsetInCU: 0xB81D, offset: 0xB81D, size: 0x8, addend: 0x0, symName: __ZNSt3__119__to_address_helperINS_16reverse_iteratorIPNS_4pairIiiEEEEvE6__callB7v160006ERKS5_, symObjAddr: 0x1B50, symBinAddr: 0x1000045FC, symSize: 0x38 }
  - { offsetInCU: 0xB83F, offset: 0xB83F, size: 0x8, addend: 0x0, symName: __ZNKSt3__116reverse_iteratorIPNS_4pairIiiEEEptB7v160006Ev, symObjAddr: 0x1B88, symBinAddr: 0x100004634, symSize: 0x24 }
  - { offsetInCU: 0xB863, offset: 0xB863, size: 0x8, addend: 0x0, symName: __ZNSt3__128__exception_guard_exceptionsINS_29_AllocatorDestroyRangeReverseINS_9allocatorINS_4pairIiiEEEENS_16reverse_iteratorIPS4_EEEEED2B7v160006Ev, symObjAddr: 0x1BAC, symBinAddr: 0x100004658, symSize: 0x50 }
  - { offsetInCU: 0xB88B, offset: 0xB88B, size: 0x8, addend: 0x0, symName: __ZNKSt3__129_AllocatorDestroyRangeReverseINS_9allocatorINS_4pairIiiEEEENS_16reverse_iteratorIPS3_EEEclB7v160006Ev, symObjAddr: 0x1BFC, symBinAddr: 0x1000046A8, symSize: 0xB4 }
  - { offsetInCU: 0xB8B0, offset: 0xB8B0, size: 0x8, addend: 0x0, symName: __ZNSt3__116reverse_iteratorINS0_IPNS_4pairIiiEEEEEC1B7v160006ES4_, symObjAddr: 0x1D20, symBinAddr: 0x1000047CC, symSize: 0x3C }
  - { offsetInCU: 0xB8E6, offset: 0xB8E6, size: 0x8, addend: 0x0, symName: __ZNSt3__116reverse_iteratorINS0_IPNS_4pairIiiEEEEEppB7v160006Ev, symObjAddr: 0x1DE0, symBinAddr: 0x10000488C, symSize: 0x30 }
  - { offsetInCU: 0xB90A, offset: 0xB90A, size: 0x8, addend: 0x0, symName: __ZNKSt3__116reverse_iteratorINS0_IPNS_4pairIiiEEEEE4baseB7v160006Ev, symObjAddr: 0x1E10, symBinAddr: 0x1000048BC, symSize: 0x24 }
  - { offsetInCU: 0xB933, offset: 0xB933, size: 0x8, addend: 0x0, symName: __ZNSt3__119__to_address_helperINS_16reverse_iteratorINS1_IPNS_4pairIiiEEEEEEvE6__callB7v160006ERKS6_, symObjAddr: 0x1E34, symBinAddr: 0x1000048E0, symSize: 0x38 }
  - { offsetInCU: 0xB955, offset: 0xB955, size: 0x8, addend: 0x0, symName: __ZNKSt3__116reverse_iteratorINS0_IPNS_4pairIiiEEEEEptB7v160006Ev, symObjAddr: 0x1E6C, symBinAddr: 0x100004918, symSize: 0x24 }
  - { offsetInCU: 0xB979, offset: 0xB979, size: 0x8, addend: 0x0, symName: __ZNKSt3__116reverse_iteratorINS0_IPNS_4pairIiiEEEEEdeB7v160006Ev, symObjAddr: 0x1E90, symBinAddr: 0x10000493C, symSize: 0x34 }
  - { offsetInCU: 0xB9AB, offset: 0xB9AB, size: 0x8, addend: 0x0, symName: __ZNSt3__116reverse_iteratorIPNS_4pairIiiEEEmmB7v160006Ev, symObjAddr: 0x1EC4, symBinAddr: 0x100004970, symSize: 0x20 }
  - { offsetInCU: 0xB9CF, offset: 0xB9CF, size: 0x8, addend: 0x0, symName: __ZNSt3__116reverse_iteratorINS0_IPNS_4pairIiiEEEEEC2B7v160006ES4_, symObjAddr: 0x1EE4, symBinAddr: 0x100004990, symSize: 0x2C }
  - { offsetInCU: 0xBA05, offset: 0xBA05, size: 0x8, addend: 0x0, symName: __ZNSt3__116reverse_iteratorIPNS_4pairIiiEEEC2B7v160006ES3_, symObjAddr: 0x1F10, symBinAddr: 0x1000049BC, symSize: 0x28 }
  - { offsetInCU: 0xBA3B, offset: 0xBA3B, size: 0x8, addend: 0x0, symName: __ZNSt3__114__split_bufferINS_4pairIiiEERNS_9allocatorIS2_EEED2Ev, symObjAddr: 0x1F38, symBinAddr: 0x1000049E4, symSize: 0x8C }
  - { offsetInCU: 0xBA65, offset: 0xBA65, size: 0x8, addend: 0x0, symName: __ZNSt3__114__split_bufferINS_4pairIiiEERNS_9allocatorIS2_EEE5clearB7v160006Ev, symObjAddr: 0x1FC4, symBinAddr: 0x100004A70, symSize: 0x28 }
  - { offsetInCU: 0xBA89, offset: 0xBA89, size: 0x8, addend: 0x0, symName: __ZNKSt3__114__split_bufferINS_4pairIiiEERNS_9allocatorIS2_EEE8capacityB7v160006Ev, symObjAddr: 0x1FEC, symBinAddr: 0x100004A98, symSize: 0x40 }
  - { offsetInCU: 0xBAAD, offset: 0xBAAD, size: 0x8, addend: 0x0, symName: __ZNSt3__114__split_bufferINS_4pairIiiEERNS_9allocatorIS2_EEE17__destruct_at_endB7v160006EPS2_, symObjAddr: 0x202C, symBinAddr: 0x100004AD8, symSize: 0x2C }
  - { offsetInCU: 0xBADF, offset: 0xBADF, size: 0x8, addend: 0x0, symName: __ZNSt3__114__split_bufferINS_4pairIiiEERNS_9allocatorIS2_EEE17__destruct_at_endB7v160006EPS2_NS_17integral_constantIbLb0EEE, symObjAddr: 0x2058, symBinAddr: 0x100004B04, symSize: 0x80 }
  - { offsetInCU: 0xBB1D, offset: 0xBB1D, size: 0x8, addend: 0x0, symName: __ZNKSt3__114__split_bufferINS_4pairIiiEERNS_9allocatorIS2_EEE9__end_capB7v160006Ev, symObjAddr: 0x20D8, symBinAddr: 0x100004B84, symSize: 0x28 }
  - { offsetInCU: 0xBB41, offset: 0xBB41, size: 0x8, addend: 0x0, symName: __ZNKSt3__117__compressed_pairIPNS_4pairIiiEERNS_9allocatorIS2_EEE5firstB7v160006Ev, symObjAddr: 0x2100, symBinAddr: 0x100004BAC, symSize: 0x24 }
  - { offsetInCU: 0xBB65, offset: 0xBB65, size: 0x8, addend: 0x0, symName: __ZNSt3__16vectorINS_4pairIiiEENS_9allocatorIS2_EEE11__make_iterB7v160006EPS2_, symObjAddr: 0x2124, symBinAddr: 0x100004BD0, symSize: 0x34 }
  - { offsetInCU: 0xBB98, offset: 0xBB98, size: 0x8, addend: 0x0, symName: __ZNSt3__111__wrap_iterIPNS_4pairIiiEEEC1B7v160006EPKvS3_, symObjAddr: 0x2158, symBinAddr: 0x100004C04, symSize: 0x3C }
  - { offsetInCU: 0xBBDC, offset: 0xBBDC, size: 0x8, addend: 0x0, symName: __ZNSt3__111__wrap_iterIPNS_4pairIiiEEEC2B7v160006EPKvS3_, symObjAddr: 0x2194, symBinAddr: 0x100004C40, symSize: 0x24 }
  - { offsetInCU: 0xBC3B, offset: 0xBC3B, size: 0x8, addend: 0x0, symName: __ZNSt3__116_UnwrapAlgPolicyIRPFbNS_4pairIiiEES2_EE10__get_compB7v160006ES5_, symObjAddr: 0x2338, symBinAddr: 0x100004DE4, symSize: 0x14 }
  - { offsetInCU: 0xBC5D, offset: 0xBC5D, size: 0x8, addend: 0x0, symName: __ZNSt3__18_IterOpsINS_17_ClassicAlgPolicyEE9iter_swapB7v160006IRPNS_4pairIiiEES7_EEvOT_OT0_, symObjAddr: 0x2C2C, symBinAddr: 0x1000056D8, symSize: 0x34 }
  - { offsetInCU: 0xBC9F, offset: 0xBC9F, size: 0x8, addend: 0x0, symName: __ZNSt3__14pairIiiE4swapB7v160006ERS1_, symObjAddr: 0x352C, symBinAddr: 0x100005FD8, symSize: 0x44 }
  - { offsetInCU: 0xBCD2, offset: 0xBCD2, size: 0x8, addend: 0x0, symName: __ZNSt3__18_IterOpsINS_17_ClassicAlgPolicyEE11__iter_moveB7v160006IRPNS_4pairIiiEEEENS_9enable_ifIXsr12is_referenceIDTdeclsr3stdE7declvalIRT_EEEEE5valueEDTclsr3stdE4movedeclsr3stdE7declvalISA_EEEEE4typeEOS9_, symObjAddr: 0x36E4, symBinAddr: 0x100006190, symSize: 0x28 }
  - { offsetInCU: 0xBCFD, offset: 0xBCFD, size: 0x8, addend: 0x0, symName: __ZNSt3__14pairIiiEaSB7v160006EOS1_, symObjAddr: 0x370C, symBinAddr: 0x1000061B8, symSize: 0x30 }
  - { offsetInCU: 0xBD31, offset: 0xBD31, size: 0x8, addend: 0x0, symName: __ZNSt3__18_IterOpsINS_17_ClassicAlgPolicyEE25__validate_iter_referenceB7v160006IRPNS_4pairIiiEEEEvv, symObjAddr: 0x373C, symBinAddr: 0x1000061E8, symSize: 0x4 }
  - { offsetInCU: 0xBD4F, offset: 0xBD4F, size: 0x8, addend: 0x0, symName: __ZNSt3__18_IterOpsINS_17_ClassicAlgPolicyEE4nextB7v160006IPNS_4pairIiiEEEET_S7_S7_, symObjAddr: 0x3740, symBinAddr: 0x1000061EC, symSize: 0x18 }
  - { offsetInCU: 0xBD84, offset: 0xBD84, size: 0x8, addend: 0x0, symName: __ZNSt3__118__unwrap_iter_implINS_11__wrap_iterIPNS_4pairIiiEEEELb1EE8__unwrapB7v160006ES5_, symObjAddr: 0x4148, symBinAddr: 0x100006BF4, symSize: 0x28 }
  - { offsetInCU: 0xBDB0, offset: 0xBDB0, size: 0x8, addend: 0x0, symName: __ZNSt3__119__to_address_helperINS_11__wrap_iterIPNS_4pairIiiEEEEvE6__callB7v160006ERKS5_, symObjAddr: 0x4194, symBinAddr: 0x100006C40, symSize: 0x30 }
  - { offsetInCU: 0xBDD2, offset: 0xBDD2, size: 0x8, addend: 0x0, symName: __ZNSt3__114pointer_traitsINS_11__wrap_iterIPNS_4pairIiiEEEEE10to_addressB7v160006ES5_, symObjAddr: 0x41C4, symBinAddr: 0x100006C70, symSize: 0x2C }
  - { offsetInCU: 0xBDF5, offset: 0xBDF5, size: 0x8, addend: 0x0, symName: __ZNKSt3__111__wrap_iterIPNS_4pairIiiEEE4baseB7v160006Ev, symObjAddr: 0x41F0, symBinAddr: 0x100006C9C, symSize: 0x18 }
  - { offsetInCU: 0xBE19, offset: 0xBE19, size: 0x8, addend: 0x0, symName: __ZNSt3__16vectorIiNS_9allocatorIiEEEC2Em, symObjAddr: 0x4208, symBinAddr: 0x100006CB4, symSize: 0xE0 }
  - { offsetInCU: 0xBE68, offset: 0xBE68, size: 0x8, addend: 0x0, symName: __ZNSt3__117__compressed_pairIPiNS_9allocatorIiEEEC1B7v160006IDnNS_18__default_init_tagEEEOT_OT0_, symObjAddr: 0x42E8, symBinAddr: 0x100006D94, symSize: 0x3C }
  - { offsetInCU: 0xBEBE, offset: 0xBEBE, size: 0x8, addend: 0x0, symName: __ZNSt3__16vectorIiNS_9allocatorIiEEE16__destroy_vectorC1ERS3_, symObjAddr: 0x4364, symBinAddr: 0x100006E10, symSize: 0x34 }
  - { offsetInCU: 0xBEF5, offset: 0xBEF5, size: 0x8, addend: 0x0, symName: __ZNSt3__16vectorIiNS_9allocatorIiEEE11__vallocateB7v160006Em, symObjAddr: 0x43A8, symBinAddr: 0x100006E54, symSize: 0xAC }
  - { offsetInCU: 0xBF37, offset: 0xBF37, size: 0x8, addend: 0x0, symName: __ZNSt3__16vectorIiNS_9allocatorIiEEE18__construct_at_endEm, symObjAddr: 0x4454, symBinAddr: 0x100006F00, symSize: 0xC8 }
  - { offsetInCU: 0xBFA7, offset: 0xBFA7, size: 0x8, addend: 0x0, symName: __ZNSt3__128__exception_guard_exceptionsINS_6vectorIiNS_9allocatorIiEEE16__destroy_vectorEE10__completeB7v160006Ev, symObjAddr: 0x451C, symBinAddr: 0x100006FC8, symSize: 0x1C }
  - { offsetInCU: 0xBFCB, offset: 0xBFCB, size: 0x8, addend: 0x0, symName: __ZNSt3__128__exception_guard_exceptionsINS_6vectorIiNS_9allocatorIiEEE16__destroy_vectorEED1B7v160006Ev, symObjAddr: 0x4538, symBinAddr: 0x100006FE4, symSize: 0x2C }
  - { offsetInCU: 0xBFF3, offset: 0xBFF3, size: 0x8, addend: 0x0, symName: __ZNSt3__117__compressed_pairIPiNS_9allocatorIiEEEC2B7v160006IDnNS_18__default_init_tagEEEOT_OT0_, symObjAddr: 0x4564, symBinAddr: 0x100007010, symSize: 0x40 }
  - { offsetInCU: 0xC049, offset: 0xC049, size: 0x8, addend: 0x0, symName: __ZNSt3__122__compressed_pair_elemIPiLi0ELb0EEC2B7v160006IDnvEEOT_, symObjAddr: 0x45A4, symBinAddr: 0x100007050, symSize: 0x1C }
  - { offsetInCU: 0xC089, offset: 0xC089, size: 0x8, addend: 0x0, symName: __ZNSt3__122__compressed_pair_elemINS_9allocatorIiEELi1ELb1EEC2B7v160006ENS_18__default_init_tagE, symObjAddr: 0x45C0, symBinAddr: 0x10000706C, symSize: 0x2C }
  - { offsetInCU: 0xC0BB, offset: 0xC0BB, size: 0x8, addend: 0x0, symName: __ZNSt3__19allocatorIiEC2B7v160006Ev, symObjAddr: 0x45EC, symBinAddr: 0x100007098, symSize: 0x2C }
  - { offsetInCU: 0xC0E3, offset: 0xC0E3, size: 0x8, addend: 0x0, symName: __ZNSt3__116__non_trivial_ifILb1ENS_9allocatorIiEEEC2B7v160006Ev, symObjAddr: 0x4618, symBinAddr: 0x1000070C4, symSize: 0x14 }
  - { offsetInCU: 0xC10B, offset: 0xC10B, size: 0x8, addend: 0x0, symName: __ZNSt3__128__exception_guard_exceptionsINS_6vectorIiNS_9allocatorIiEEE16__destroy_vectorEEC1B7v160006ES5_, symObjAddr: 0x462C, symBinAddr: 0x1000070D8, symSize: 0x34 }
  - { offsetInCU: 0xC141, offset: 0xC141, size: 0x8, addend: 0x0, symName: __ZNSt3__128__exception_guard_exceptionsINS_6vectorIiNS_9allocatorIiEEE16__destroy_vectorEEC2B7v160006ES5_, symObjAddr: 0x4660, symBinAddr: 0x10000710C, symSize: 0x24 }
  - { offsetInCU: 0xC177, offset: 0xC177, size: 0x8, addend: 0x0, symName: __ZNSt3__16vectorIiNS_9allocatorIiEEE16__destroy_vectorC2ERS3_, symObjAddr: 0x4684, symBinAddr: 0x100007130, symSize: 0x20 }
  - { offsetInCU: 0xC1AE, offset: 0xC1AE, size: 0x8, addend: 0x0, symName: __ZNKSt3__16vectorIiNS_9allocatorIiEEE8max_sizeEv, symObjAddr: 0x46A4, symBinAddr: 0x100007150, symSize: 0x60 }
  - { offsetInCU: 0xC1D4, offset: 0xC1D4, size: 0x8, addend: 0x0, symName: __ZNKSt3__16vectorIiNS_9allocatorIiEEE20__throw_length_errorB7v160006Ev, symObjAddr: 0x4704, symBinAddr: 0x1000071B0, symSize: 0x1C }
  - { offsetInCU: 0xC1F8, offset: 0xC1F8, size: 0x8, addend: 0x0, symName: __ZNSt3__16vectorIiNS_9allocatorIiEEE7__allocB7v160006Ev, symObjAddr: 0x4760, symBinAddr: 0x10000720C, symSize: 0x28 }
  - { offsetInCU: 0xC21C, offset: 0xC21C, size: 0x8, addend: 0x0, symName: __ZNSt3__16vectorIiNS_9allocatorIiEEE9__end_capB7v160006Ev, symObjAddr: 0x4788, symBinAddr: 0x100007234, symSize: 0x28 }
  - { offsetInCU: 0xC240, offset: 0xC240, size: 0x8, addend: 0x0, symName: __ZNKSt3__16vectorIiNS_9allocatorIiEEE14__annotate_newB7v160006Em, symObjAddr: 0x47B0, symBinAddr: 0x10000725C, symSize: 0xAC }
  - { offsetInCU: 0xC27D, offset: 0xC27D, size: 0x8, addend: 0x0, symName: __ZNSt3__116allocator_traitsINS_9allocatorIiEEE8max_sizeB7v160006IS2_vEEmRKS2_, symObjAddr: 0x485C, symBinAddr: 0x100007308, symSize: 0x24 }
  - { offsetInCU: 0xC2AA, offset: 0xC2AA, size: 0x8, addend: 0x0, symName: __ZNKSt3__16vectorIiNS_9allocatorIiEEE7__allocB7v160006Ev, symObjAddr: 0x4880, symBinAddr: 0x10000732C, symSize: 0x28 }
  - { offsetInCU: 0xC2CE, offset: 0xC2CE, size: 0x8, addend: 0x0, symName: __ZNKSt3__19allocatorIiE8max_sizeB7v160006Ev, symObjAddr: 0x48A8, symBinAddr: 0x100007354, symSize: 0x14 }
  - { offsetInCU: 0xC2F2, offset: 0xC2F2, size: 0x8, addend: 0x0, symName: __ZNKSt3__117__compressed_pairIPiNS_9allocatorIiEEE6secondB7v160006Ev, symObjAddr: 0x48BC, symBinAddr: 0x100007368, symSize: 0x24 }
  - { offsetInCU: 0xC316, offset: 0xC316, size: 0x8, addend: 0x0, symName: __ZNKSt3__122__compressed_pair_elemINS_9allocatorIiEELi1ELb1EE5__getB7v160006Ev, symObjAddr: 0x48E0, symBinAddr: 0x10000738C, symSize: 0x14 }
  - { offsetInCU: 0xC33A, offset: 0xC33A, size: 0x8, addend: 0x0, symName: __ZNSt3__19allocatorIiE8allocateB7v160006Em, symObjAddr: 0x48F4, symBinAddr: 0x1000073A0, symSize: 0x58 }
  - { offsetInCU: 0xC36C, offset: 0xC36C, size: 0x8, addend: 0x0, symName: __ZNSt3__117__compressed_pairIPiNS_9allocatorIiEEE6secondB7v160006Ev, symObjAddr: 0x494C, symBinAddr: 0x1000073F8, symSize: 0x24 }
  - { offsetInCU: 0xC390, offset: 0xC390, size: 0x8, addend: 0x0, symName: __ZNSt3__122__compressed_pair_elemINS_9allocatorIiEELi1ELb1EE5__getB7v160006Ev, symObjAddr: 0x4970, symBinAddr: 0x10000741C, symSize: 0x14 }
  - { offsetInCU: 0xC3B4, offset: 0xC3B4, size: 0x8, addend: 0x0, symName: __ZNSt3__117__compressed_pairIPiNS_9allocatorIiEEE5firstB7v160006Ev, symObjAddr: 0x4984, symBinAddr: 0x100007430, symSize: 0x24 }
  - { offsetInCU: 0xC3D8, offset: 0xC3D8, size: 0x8, addend: 0x0, symName: __ZNSt3__122__compressed_pair_elemIPiLi0ELb0EE5__getB7v160006Ev, symObjAddr: 0x49A8, symBinAddr: 0x100007454, symSize: 0x14 }
  - { offsetInCU: 0xC3FC, offset: 0xC3FC, size: 0x8, addend: 0x0, symName: __ZNKSt3__16vectorIiNS_9allocatorIiEEE31__annotate_contiguous_containerB7v160006EPKvS5_S5_S5_, symObjAddr: 0x49BC, symBinAddr: 0x100007468, symSize: 0x20 }
  - { offsetInCU: 0xC44C, offset: 0xC44C, size: 0x8, addend: 0x0, symName: __ZNKSt3__16vectorIiNS_9allocatorIiEEE4dataB7v160006Ev, symObjAddr: 0x49DC, symBinAddr: 0x100007488, symSize: 0x28 }
  - { offsetInCU: 0xC470, offset: 0xC470, size: 0x8, addend: 0x0, symName: __ZNKSt3__16vectorIiNS_9allocatorIiEEE8capacityB7v160006Ev, symObjAddr: 0x4A04, symBinAddr: 0x1000074B0, symSize: 0x40 }
  - { offsetInCU: 0xC494, offset: 0xC494, size: 0x8, addend: 0x0, symName: __ZNKSt3__16vectorIiNS_9allocatorIiEEE9__end_capB7v160006Ev, symObjAddr: 0x4A58, symBinAddr: 0x100007504, symSize: 0x28 }
  - { offsetInCU: 0xC4B8, offset: 0xC4B8, size: 0x8, addend: 0x0, symName: __ZNKSt3__117__compressed_pairIPiNS_9allocatorIiEEE5firstB7v160006Ev, symObjAddr: 0x4A80, symBinAddr: 0x10000752C, symSize: 0x24 }
  - { offsetInCU: 0xC4DC, offset: 0xC4DC, size: 0x8, addend: 0x0, symName: __ZNKSt3__122__compressed_pair_elemIPiLi0ELb0EE5__getB7v160006Ev, symObjAddr: 0x4AA4, symBinAddr: 0x100007550, symSize: 0x14 }
  - { offsetInCU: 0xC519, offset: 0xC519, size: 0x8, addend: 0x0, symName: __ZNSt3__16vectorIiNS_9allocatorIiEEE21_ConstructTransactionC1B7v160006ERS3_m, symObjAddr: 0x4AB8, symBinAddr: 0x100007564, symSize: 0x3C }
  - { offsetInCU: 0xC55F, offset: 0xC55F, size: 0x8, addend: 0x0, symName: __ZNSt3__116allocator_traitsINS_9allocatorIiEEE9constructB7v160006IiJEvEEvRS2_PT_DpOT0_, symObjAddr: 0x4AF4, symBinAddr: 0x1000075A0, symSize: 0x2C }
  - { offsetInCU: 0xC5A0, offset: 0xC5A0, size: 0x8, addend: 0x0, symName: __ZNSt3__16vectorIiNS_9allocatorIiEEE21_ConstructTransactionD1B7v160006Ev, symObjAddr: 0x4B20, symBinAddr: 0x1000075CC, symSize: 0x2C }
  - { offsetInCU: 0xC5C8, offset: 0xC5C8, size: 0x8, addend: 0x0, symName: __ZNSt3__16vectorIiNS_9allocatorIiEEE21_ConstructTransactionC2B7v160006ERS3_m, symObjAddr: 0x4B4C, symBinAddr: 0x1000075F8, symSize: 0x44 }
  - { offsetInCU: 0xC60E, offset: 0xC60E, size: 0x8, addend: 0x0, symName: __ZNSt3__19allocatorIiE9constructB7v160006IiJEEEvPT_DpOT0_, symObjAddr: 0x4B90, symBinAddr: 0x10000763C, symSize: 0x1C }
  - { offsetInCU: 0xC64E, offset: 0xC64E, size: 0x8, addend: 0x0, symName: __ZNSt3__16vectorIiNS_9allocatorIiEEE21_ConstructTransactionD2B7v160006Ev, symObjAddr: 0x4BAC, symBinAddr: 0x100007658, symSize: 0x20 }
  - { offsetInCU: 0xC676, offset: 0xC676, size: 0x8, addend: 0x0, symName: __ZNSt3__128__exception_guard_exceptionsINS_6vectorIiNS_9allocatorIiEEE16__destroy_vectorEED2B7v160006Ev, symObjAddr: 0x4BCC, symBinAddr: 0x100007678, symSize: 0x50 }
  - { offsetInCU: 0xC69E, offset: 0xC69E, size: 0x8, addend: 0x0, symName: __ZNSt3__16vectorIiNS_9allocatorIiEEE16__destroy_vectorclB7v160006Ev, symObjAddr: 0x4C1C, symBinAddr: 0x1000076C8, symSize: 0x9C }
  - { offsetInCU: 0xC6C2, offset: 0xC6C2, size: 0x8, addend: 0x0, symName: __ZNKSt3__16vectorIiNS_9allocatorIiEEE17__annotate_deleteB7v160006Ev, symObjAddr: 0x4CB8, symBinAddr: 0x100007764, symSize: 0xB8 }
  - { offsetInCU: 0xC6E6, offset: 0xC6E6, size: 0x8, addend: 0x0, symName: __ZNSt3__16vectorIiNS_9allocatorIiEEE7__clearB7v160006Ev, symObjAddr: 0x4D80, symBinAddr: 0x10000782C, symSize: 0x28 }
  - { offsetInCU: 0xC70A, offset: 0xC70A, size: 0x8, addend: 0x0, symName: __ZNSt3__116allocator_traitsINS_9allocatorIiEEE10deallocateB7v160006ERS2_Pim, symObjAddr: 0x4DA8, symBinAddr: 0x100007854, symSize: 0x34 }
  - { offsetInCU: 0xC74B, offset: 0xC74B, size: 0x8, addend: 0x0, symName: __ZNKSt3__16vectorIiNS_9allocatorIiEEE4sizeB7v160006Ev, symObjAddr: 0x4DDC, symBinAddr: 0x100007888, symSize: 0x28 }
  - { offsetInCU: 0xC76F, offset: 0xC76F, size: 0x8, addend: 0x0, symName: __ZNSt3__16vectorIiNS_9allocatorIiEEE22__base_destruct_at_endB7v160006EPi, symObjAddr: 0x4E04, symBinAddr: 0x1000078B0, symSize: 0x8C }
  - { offsetInCU: 0xC7B1, offset: 0xC7B1, size: 0x8, addend: 0x0, symName: __ZNSt3__116allocator_traitsINS_9allocatorIiEEE7destroyB7v160006IivEEvRS2_PT_, symObjAddr: 0x4E90, symBinAddr: 0x10000793C, symSize: 0x2C }
  - { offsetInCU: 0xC7ED, offset: 0xC7ED, size: 0x8, addend: 0x0, symName: __ZNSt3__19allocatorIiE7destroyB7v160006EPi, symObjAddr: 0x4EBC, symBinAddr: 0x100007968, symSize: 0x14 }
  - { offsetInCU: 0xC81F, offset: 0xC81F, size: 0x8, addend: 0x0, symName: __ZNSt3__19allocatorIiE10deallocateB7v160006EPim, symObjAddr: 0x4ED0, symBinAddr: 0x10000797C, symSize: 0x40 }
  - { offsetInCU: 0xC85F, offset: 0xC85F, size: 0x8, addend: 0x0, symName: __ZNSt3__16vectorIiNS_9allocatorIiEEED2B7v160006Ev, symObjAddr: 0x4F10, symBinAddr: 0x1000079BC, symSize: 0x44 }
...
