---
triple:          'arm64-apple-darwin'
binary-path:     "/Users/youjin/Documents/GitHub/BOJ/00001_05000/1261_알고스팟/1261"
relocations:
  - { offsetInCU: 0x3F, offset: 0x3F, size: 0x8, addend: 0x0, symName: _dir, symObjAddr: 0x4740, symBinAddr: 0x10000C000, symSize: 0x0 }
  - { offsetInCU: 0x74, offset: 0x74, size: 0x8, addend: 0x0, symName: _room, symObjAddr: 0x31F74, symBinAddr: 0x10000C020, symSize: 0x0 }
  - { offsetInCU: 0x9B, offset: 0x9B, size: 0x8, addend: 0x0, symName: _n, symObjAddr: 0x3BBB4, symBinAddr: 0x100015C60, symSize: 0x0 }
  - { offsetInCU: 0xB0, offset: 0xB0, size: 0x8, addend: 0x0, symName: _m, symObjAddr: 0x3BBB8, symBinAddr: 0x100015C64, symSize: 0x0 }
  - { offsetInCU: 0x58AA, offset: 0x58AA, size: 0x8, addend: 0x0, symName: __ZNSt3__117__floyd_sift_downB7v160006INS_17_ClassicAlgPolicyERNS_7greaterINS_5tupleIJiiiEEEEENS_11__wrap_iterIPS4_EEEET1_SA_OT0_NS_15iterator_traitsISA_E15difference_typeE, symObjAddr: 0x3888, symBinAddr: 0x100006BBC, symSize: 0x148 }
  - { offsetInCU: 0x5974, offset: 0x5974, size: 0x8, addend: 0x0, symName: __ZNSt3__124__put_character_sequenceB7v160006IcNS_11char_traitsIcEEEERNS_13basic_ostreamIT_T0_EES7_PKS4_m, symObjAddr: 0x3B7C, symBinAddr: 0x100006EB0, symSize: 0x1EC }
  - { offsetInCU: 0x6F55, offset: 0x6F55, size: 0x8, addend: 0x0, symName: __ZNSt3__1rsB7v160006IcNS_11char_traitsIcEEEERNS_13basic_istreamIT_T0_EES7_RS4_, symObjAddr: 0x4E8, symBinAddr: 0x10000381C, symSize: 0x190 }
  - { offsetInCU: 0x723C, offset: 0x723C, size: 0x8, addend: 0x0, symName: __ZNSt3__13getB7v160006ILm0EJiiiEEEONS_13tuple_elementIXT_ENS_5tupleIJDpT0_EEEE4typeEOS5_, symObjAddr: 0x788, symBinAddr: 0x100003ABC, symSize: 0x24 }
  - { offsetInCU: 0x7289, offset: 0x7289, size: 0x8, addend: 0x0, symName: __ZNSt3__13getB7v160006ILm1EJiiiEEEONS_13tuple_elementIXT_ENS_5tupleIJDpT0_EEEE4typeEOS5_, symObjAddr: 0x7AC, symBinAddr: 0x100003AE0, symSize: 0x28 }
  - { offsetInCU: 0x72D6, offset: 0x72D6, size: 0x8, addend: 0x0, symName: __ZNSt3__13getB7v160006ILm2EJiiiEEEONS_13tuple_elementIXT_ENS_5tupleIJDpT0_EEEE4typeEOS5_, symObjAddr: 0x7D4, symBinAddr: 0x100003B08, symSize: 0x28 }
  - { offsetInCU: 0x7323, offset: 0x7323, size: 0x8, addend: 0x0, symName: __ZNSt3__1lsB7v160006INS_11char_traitsIcEEEERNS_13basic_ostreamIcT_EES6_c, symObjAddr: 0x84C, symBinAddr: 0x100003B80, symSize: 0x34 }
  - { offsetInCU: 0x7369, offset: 0x7369, size: 0x8, addend: 0x0, symName: __ZNSt3__14endlB7v160006IcNS_11char_traitsIcEEEERNS_13basic_ostreamIT_T0_EES7_, symObjAddr: 0x8AC, symBinAddr: 0x100003BE0, symSize: 0x58 }
  - { offsetInCU: 0x73A9, offset: 0x73A9, size: 0x8, addend: 0x0, symName: __ZNSt3__13minB7v160006IiEERKT_S3_S3_, symObjAddr: 0x904, symBinAddr: 0x100003C38, symSize: 0x2C }
  - { offsetInCU: 0x7425, offset: 0x7425, size: 0x8, addend: 0x0, symName: __ZNSt3__13minB7v160006IiNS_6__lessIiiEEEERKT_S5_S5_T0_, symObjAddr: 0xAE8, symBinAddr: 0x100003E1C, symSize: 0x54 }
  - { offsetInCU: 0x74BA, offset: 0x74BA, size: 0x8, addend: 0x0, symName: __ZNSt3__118__debug_db_erase_cB7v160006INS_6vectorINS_5tupleIJiiiEEENS_9allocatorIS3_EEEEEEvPT_, symObjAddr: 0xDDC, symBinAddr: 0x100004110, symSize: 0x10 }
  - { offsetInCU: 0x74EB, offset: 0x74EB, size: 0x8, addend: 0x0, symName: __ZNSt3__112__to_addressB7v160006INS_5tupleIJiiiEEEEEPT_S4_, symObjAddr: 0xF20, symBinAddr: 0x100004254, symSize: 0x14 }
  - { offsetInCU: 0x7520, offset: 0x7520, size: 0x8, addend: 0x0, symName: __ZNSt3__119__libcpp_deallocateB7v160006EPvmm, symObjAddr: 0x1044, symBinAddr: 0x100004378, symSize: 0x60 }
  - { offsetInCU: 0x7585, offset: 0x7585, size: 0x8, addend: 0x0, symName: __ZNSt3__124__is_overaligned_for_newB7v160006Em, symObjAddr: 0x10A4, symBinAddr: 0x1000043D8, symSize: 0x20 }
  - { offsetInCU: 0x75B3, offset: 0x75B3, size: 0x8, addend: 0x0, symName: __ZNSt3__127__do_deallocate_handle_sizeB7v160006IJSt11align_val_tEEEvPvmDpT_, symObjAddr: 0x10C4, symBinAddr: 0x1000043F8, symSize: 0x30 }
  - { offsetInCU: 0x7606, offset: 0x7606, size: 0x8, addend: 0x0, symName: __ZNSt3__127__do_deallocate_handle_sizeB7v160006IJEEEvPvmDpT_, symObjAddr: 0x10F4, symBinAddr: 0x100004428, symSize: 0x28 }
  - { offsetInCU: 0x7644, offset: 0x7644, size: 0x8, addend: 0x0, symName: __ZNSt3__124__libcpp_operator_deleteB7v160006IJPvSt11align_val_tEEEvDpT_, symObjAddr: 0x111C, symBinAddr: 0x100004450, symSize: 0x2C }
  - { offsetInCU: 0x768D, offset: 0x768D, size: 0x8, addend: 0x0, symName: __ZNSt3__124__libcpp_operator_deleteB7v160006IJPvEEEvDpT_, symObjAddr: 0x1148, symBinAddr: 0x10000447C, symSize: 0x24 }
  - { offsetInCU: 0x7C4C, offset: 0x7C4C, size: 0x8, addend: 0x0, symName: __ZNSt3__119__debug_db_insert_cB7v160006INS_6vectorINS_5tupleIJiiiEEENS_9allocatorIS3_EEEEEEvPT_, symObjAddr: 0x151C, symBinAddr: 0x100004850, symSize: 0x10 }
  - { offsetInCU: 0x7C7D, offset: 0x7C7D, size: 0x8, addend: 0x0, symName: __ZNSt3__19push_heapB7v160006INS_11__wrap_iterIPNS_5tupleIJiiiEEEEENS_7greaterIS3_EEEEvT_S8_T0_, symObjAddr: 0x1660, symBinAddr: 0x100004994, symSize: 0x40 }
  - { offsetInCU: 0x7CD3, offset: 0x7CD3, size: 0x8, addend: 0x0, symName: __ZNSt3__13maxB7v160006ImEERKT_S3_S3_, symObjAddr: 0x1CB8, symBinAddr: 0x100004FEC, symSize: 0x2C }
  - { offsetInCU: 0x7D16, offset: 0x7D16, size: 0x8, addend: 0x0, symName: __ZNSt3__13minB7v160006ImEERKT_S3_S3_, symObjAddr: 0x1CE4, symBinAddr: 0x100005018, symSize: 0x2C }
  - { offsetInCU: 0x7F43, offset: 0x7F43, size: 0x8, addend: 0x0, symName: __ZNSt3__13minB7v160006ImNS_6__lessImmEEEERKT_S5_S5_T0_, symObjAddr: 0x1D70, symBinAddr: 0x1000050A4, symSize: 0x54 }
  - { offsetInCU: 0x7FD8, offset: 0x7FD8, size: 0x8, addend: 0x0, symName: __ZNSt3__120__throw_length_errorB7v160006EPKc, symObjAddr: 0x1E50, symBinAddr: 0x100005184, symSize: 0x64 }
  - { offsetInCU: 0x8000, offset: 0x8000, size: 0x8, addend: 0x0, symName: __ZNSt3__13maxB7v160006ImNS_6__lessImmEEEERKT_S5_S5_T0_, symObjAddr: 0x1F34, symBinAddr: 0x100005268, symSize: 0x54 }
  - { offsetInCU: 0x805A, offset: 0x805A, size: 0x8, addend: 0x0, symName: __ZNSt3__119__allocate_at_leastB7v160006INS_9allocatorINS_5tupleIJiiiEEEEEEENS_19__allocation_resultINS_16allocator_traitsIT_E7pointerEEERS7_m, symObjAddr: 0x20A4, symBinAddr: 0x1000053D8, symSize: 0x40 }
  - { offsetInCU: 0x809D, offset: 0x809D, size: 0x8, addend: 0x0, symName: __ZNSt3__117__libcpp_allocateB7v160006Emm, symObjAddr: 0x222C, symBinAddr: 0x100005560, symSize: 0x60 }
  - { offsetInCU: 0x80F7, offset: 0x80F7, size: 0x8, addend: 0x0, symName: __ZNSt3__121__libcpp_operator_newB7v160006IJmSt11align_val_tEEEPvDpT_, symObjAddr: 0x228C, symBinAddr: 0x1000055C0, symSize: 0x2C }
  - { offsetInCU: 0x8144, offset: 0x8144, size: 0x8, addend: 0x0, symName: __ZNSt3__121__libcpp_operator_newB7v160006IJmEEEPvDpT_, symObjAddr: 0x22B8, symBinAddr: 0x1000055EC, symSize: 0x24 }
  - { offsetInCU: 0x817D, offset: 0x817D, size: 0x8, addend: 0x0, symName: __ZNSt3__142__uninitialized_allocator_move_if_noexceptB7v160006INS_9allocatorINS_5tupleIJiiiEEEEENS_16reverse_iteratorIPS3_EES7_S7_EET2_RT_T0_T1_S8_, symObjAddr: 0x2340, symBinAddr: 0x100005674, symSize: 0x12C }
  - { offsetInCU: 0x821D, offset: 0x821D, size: 0x8, addend: 0x0, symName: __ZNSt3__14swapB7v160006IPNS_5tupleIJiiiEEEEENS_9enable_ifIXaasr21is_move_constructibleIT_EE5valuesr18is_move_assignableIS5_EE5valueEvE4typeERS5_S8_, symObjAddr: 0x24B8, symBinAddr: 0x1000057EC, symSize: 0x3C }
  - { offsetInCU: 0x826E, offset: 0x826E, size: 0x8, addend: 0x0, symName: __ZNSt3__125__debug_db_invalidate_allB7v160006INS_6vectorINS_5tupleIJiiiEEENS_9allocatorIS3_EEEEEEvPT_, symObjAddr: 0x25BC, symBinAddr: 0x1000058F0, symSize: 0x10 }
  - { offsetInCU: 0x829F, offset: 0x829F, size: 0x8, addend: 0x0, symName: __ZNSt3__122__make_exception_guardB7v160006INS_29_AllocatorDestroyRangeReverseINS_9allocatorINS_5tupleIJiiiEEEEENS_16reverse_iteratorIPS4_EEEEEENS_28__exception_guard_exceptionsIT_EESB_, symObjAddr: 0x25CC, symBinAddr: 0x100005900, symSize: 0x4C }
  - { offsetInCU: 0x82D5, offset: 0x82D5, size: 0x8, addend: 0x0, symName: __ZNSt3__1neB7v160006IPNS_5tupleIJiiiEEES3_EEbRKNS_16reverse_iteratorIT_EERKNS4_IT0_EE, symObjAddr: 0x265C, symBinAddr: 0x100005990, symSize: 0x48 }
  - { offsetInCU: 0x8321, offset: 0x8321, size: 0x8, addend: 0x0, symName: __ZNSt3__112__to_addressB7v160006INS_16reverse_iteratorIPNS_5tupleIJiiiEEEEEvEENS_5decayIDTclsr19__to_address_helperIT_EE6__callclsr3stdE7declvalIRKS7_EEEEE4typeES9_, symObjAddr: 0x26A4, symBinAddr: 0x1000059D8, symSize: 0x24 }
  - { offsetInCU: 0x8380, offset: 0x8380, size: 0x8, addend: 0x0, symName: __ZNSt3__119__allocator_destroyB7v160006INS_9allocatorINS_5tupleIJiiiEEEEENS_16reverse_iteratorINS5_IPS3_EEEES8_EEvRT_T0_T1_, symObjAddr: 0x2954, symBinAddr: 0x100005C88, symSize: 0x70 }
  - { offsetInCU: 0x83E5, offset: 0x83E5, size: 0x8, addend: 0x0, symName: __ZNSt3__1neB7v160006INS_16reverse_iteratorIPNS_5tupleIJiiiEEEEES5_EEbRKNS1_IT_EERKNS1_IT0_EE, symObjAddr: 0x2A00, symBinAddr: 0x100005D34, symSize: 0x60 }
  - { offsetInCU: 0x8431, offset: 0x8431, size: 0x8, addend: 0x0, symName: __ZNSt3__112__to_addressB7v160006INS_16reverse_iteratorINS1_IPNS_5tupleIJiiiEEEEEEEvEENS_5decayIDTclsr19__to_address_helperIT_EE6__callclsr3stdE7declvalIRKS8_EEEEE4typeESA_, symObjAddr: 0x2A60, symBinAddr: 0x100005D94, symSize: 0x24 }
  - { offsetInCU: 0x8490, offset: 0x8490, size: 0x8, addend: 0x0, symName: __ZNSt3__111__push_heapB7v160006INS_17_ClassicAlgPolicyENS_11__wrap_iterIPNS_5tupleIJiiiEEEEENS_7greaterIS4_EEEEvT0_S9_RT1_, symObjAddr: 0x2DC8, symBinAddr: 0x1000060FC, symSize: 0x5C }
  - { offsetInCU: 0x84FD, offset: 0x84FD, size: 0x8, addend: 0x0, symName: __ZNSt3__1miB7v160006IPNS_5tupleIJiiiEEES3_EEDTmicldtfp_4baseEcldtfp0_4baseEERKNS_11__wrap_iterIT_EERKNS5_IT0_EE, symObjAddr: 0x2E24, symBinAddr: 0x100006158, symSize: 0x48 }
  - { offsetInCU: 0x8549, offset: 0x8549, size: 0x8, addend: 0x0, symName: __ZNSt3__19__sift_upB7v160006INS_17_ClassicAlgPolicyERNS_7greaterINS_5tupleIJiiiEEEEENS_11__wrap_iterIPS4_EEEEvT1_SA_OT0_NS_15iterator_traitsISA_E15difference_typeE, symObjAddr: 0x2E6C, symBinAddr: 0x1000061A0, symSize: 0x164 }
  - { offsetInCU: 0x866C, offset: 0x866C, size: 0x8, addend: 0x0, symName: __ZNSt3__1gtB7v160006IJiiiEJiiiEEEbRKNS_5tupleIJDpT_EEERKNS1_IJDpT0_EEE, symObjAddr: 0x3124, symBinAddr: 0x100006458, symSize: 0x30 }
  - { offsetInCU: 0x86D3, offset: 0x86D3, size: 0x8, addend: 0x0, symName: __ZNSt3__1ltB7v160006IJiiiEJiiiEEEbRKNS_5tupleIJDpT_EEERKNS1_IJDpT0_EEE, symObjAddr: 0x3154, symBinAddr: 0x100006488, symSize: 0x34 }
  - { offsetInCU: 0x8781, offset: 0x8781, size: 0x8, addend: 0x0, symName: __ZNSt3__13getB7v160006ILm0EJiiiEEERKNS_13tuple_elementIXT_ENS_5tupleIJDpT0_EEEE4typeERKS5_, symObjAddr: 0x3260, symBinAddr: 0x100006594, symSize: 0x24 }
  - { offsetInCU: 0x8815, offset: 0x8815, size: 0x8, addend: 0x0, symName: __ZNSt3__13getB7v160006ILm1EJiiiEEERKNS_13tuple_elementIXT_ENS_5tupleIJDpT0_EEEE4typeERKS5_, symObjAddr: 0x3374, symBinAddr: 0x1000066A8, symSize: 0x28 }
  - { offsetInCU: 0x88A9, offset: 0x88A9, size: 0x8, addend: 0x0, symName: __ZNSt3__13getB7v160006ILm2EJiiiEEERKNS_13tuple_elementIXT_ENS_5tupleIJDpT0_EEEE4typeERKS5_, symObjAddr: 0x348C, symBinAddr: 0x1000067C0, symSize: 0x28 }
  - { offsetInCU: 0x893D, offset: 0x893D, size: 0x8, addend: 0x0, symName: __ZNSt3__127__memberwise_forward_assignB7v160006INS_5tupleIJiiiEEES2_JiiiEJLm0ELm1ELm2EEEEvRT_OT0_NS_13__tuple_typesIJDpT1_EEENS_15__tuple_indicesIJXspT2_EEEE, symObjAddr: 0x34EC, symBinAddr: 0x100006820, symSize: 0xB0 }
  - { offsetInCU: 0x89CB, offset: 0x89CB, size: 0x8, addend: 0x0, symName: __ZNSt3__19__swallowB7v160006IJiiiEEEvDpOT_, symObjAddr: 0x359C, symBinAddr: 0x1000068D0, symSize: 0x18 }
  - { offsetInCU: 0x8A1C, offset: 0x8A1C, size: 0x8, addend: 0x0, symName: __ZNSt3__13getB7v160006ILm0EJiiiEEERNS_13tuple_elementIXT_ENS_5tupleIJDpT0_EEEE4typeERS5_, symObjAddr: 0x35B4, symBinAddr: 0x1000068E8, symSize: 0x24 }
  - { offsetInCU: 0x8A69, offset: 0x8A69, size: 0x8, addend: 0x0, symName: __ZNSt3__13getB7v160006ILm1EJiiiEEERNS_13tuple_elementIXT_ENS_5tupleIJDpT0_EEEE4typeERS5_, symObjAddr: 0x35D8, symBinAddr: 0x10000690C, symSize: 0x28 }
  - { offsetInCU: 0x8AB6, offset: 0x8AB6, size: 0x8, addend: 0x0, symName: __ZNSt3__13getB7v160006ILm2EJiiiEEERNS_13tuple_elementIXT_ENS_5tupleIJDpT0_EEEE4typeERS5_, symObjAddr: 0x3600, symBinAddr: 0x100006934, symSize: 0x28 }
  - { offsetInCU: 0x8B03, offset: 0x8B03, size: 0x8, addend: 0x0, symName: __ZNSt3__18pop_heapB7v160006INS_11__wrap_iterIPNS_5tupleIJiiiEEEEENS_7greaterIS3_EEEEvT_S8_T0_, symObjAddr: 0x36D4, symBinAddr: 0x100006A08, symSize: 0x58 }
  - { offsetInCU: 0x8B67, offset: 0x8B67, size: 0x8, addend: 0x0, symName: __ZNSt3__110__pop_heapB7v160006INS_17_ClassicAlgPolicyENS_7greaterINS_5tupleIJiiiEEEEENS_11__wrap_iterIPS4_EEEEvT1_S9_RT0_NS_15iterator_traitsIS9_E15difference_typeE, symObjAddr: 0x3758, symBinAddr: 0x100006A8C, symSize: 0x130 }
  - { offsetInCU: 0x8C17, offset: 0x8C17, size: 0x8, addend: 0x0, symName: __ZNSt3__1eqB7v160006IPNS_5tupleIJiiiEEEEEbRKNS_11__wrap_iterIT_EES8_, symObjAddr: 0x39D0, symBinAddr: 0x100006D04, symSize: 0x48 }
  - { offsetInCU: 0x8C5A, offset: 0x8C5A, size: 0x8, addend: 0x0, symName: __ZNSt3__116__pad_and_outputB7v160006IcNS_11char_traitsIcEEEENS_19ostreambuf_iteratorIT_T0_EES6_PKS4_S8_S8_RNS_8ios_baseES4_, symObjAddr: 0x3D84, symBinAddr: 0x1000070B8, symSize: 0x240 }
  - { offsetInCU: 0x8D29, offset: 0x8D29, size: 0x8, addend: 0x0, symName: __ZNSt3__119__debug_db_insert_cB7v160006INS_12basic_stringIcNS_11char_traitsIcEENS_9allocatorIcEEEEEEvPT_, symObjAddr: 0x420C, symBinAddr: 0x100007540, symSize: 0x10 }
  - { offsetInCU: 0x8D5A, offset: 0x8D5A, size: 0x8, addend: 0x0, symName: __ZNSt3__112__to_addressB7v160006IcEEPT_S2_, symObjAddr: 0x42D8, symBinAddr: 0x10000760C, symSize: 0x14 }
  - { offsetInCU: 0x8DC2, offset: 0x8DC2, size: 0x8, addend: 0x0, symName: __ZNSt3__19use_facetB7v160006INS_5ctypeIcEEEERKT_RKNS_6localeE, symObjAddr: 0x4524, symBinAddr: 0x100007858, symSize: 0x2C }
  - { offsetInCU: 0x950B, offset: 0x950B, size: 0x8, addend: 0x0, symName: __ZSt28__throw_bad_array_new_lengthB7v160006v, symObjAddr: 0x21F8, symBinAddr: 0x10000552C, symSize: 0x34 }
  - { offsetInCU: 0x9A89, offset: 0x9A89, size: 0x8, addend: 0x0, symName: __ZNSt3__16vectorINS_5tupleIJiiiEEENS_9allocatorIS2_EEE26__swap_out_circular_bufferERNS_14__split_bufferIS2_RS4_EE, symObjAddr: 0x1AF8, symBinAddr: 0x100004E2C, symSize: 0x118 }
  - { offsetInCU: 0xBE0C, offset: 0xBE0C, size: 0x8, addend: 0x0, symName: __Z7B_checkii, symObjAddr: 0x0, symBinAddr: 0x100003334, symSize: 0x9C }
  - { offsetInCU: 0xBE47, offset: 0xBE47, size: 0x8, addend: 0x0, symName: _main, symObjAddr: 0x9C, symBinAddr: 0x1000033D0, symSize: 0x420 }
  - { offsetInCU: 0xBF34, offset: 0xBF34, size: 0x8, addend: 0x0, symName: __ZNSt3__19basic_iosIcNS_11char_traitsIcEEE3tieB7v160006EPNS_13basic_ostreamIcS2_EE, symObjAddr: 0x4BC, symBinAddr: 0x1000037F0, symSize: 0x2C }
  - { offsetInCU: 0xBFCD, offset: 0xBFCD, size: 0x8, addend: 0x0, symName: __ZNSt3__114priority_queueINS_5tupleIJiiiEEENS_6vectorIS2_NS_9allocatorIS2_EEEENS_7greaterIS2_EEEC1B7v160006Ev, symObjAddr: 0x678, symBinAddr: 0x1000039AC, symSize: 0x2C }
  - { offsetInCU: 0xBFF7, offset: 0xBFF7, size: 0x8, addend: 0x0, symName: __ZNSt3__114priority_queueINS_5tupleIJiiiEEENS_6vectorIS2_NS_9allocatorIS2_EEEENS_7greaterIS2_EEE4pushEOS2_, symObjAddr: 0x6A4, symBinAddr: 0x1000039D8, symSize: 0x58 }
  - { offsetInCU: 0xC034, offset: 0xC034, size: 0x8, addend: 0x0, symName: __ZNSt3__15tupleIJiiiEEC1B7v160006IJiiiELi0EEEDpOT_, symObjAddr: 0x6FC, symBinAddr: 0x100003A30, symSize: 0x44 }
  - { offsetInCU: 0xC0A6, offset: 0xC0A6, size: 0x8, addend: 0x0, symName: __ZNKSt3__114priority_queueINS_5tupleIJiiiEEENS_6vectorIS2_NS_9allocatorIS2_EEEENS_7greaterIS2_EEE4sizeB7v160006Ev, symObjAddr: 0x740, symBinAddr: 0x100003A74, symSize: 0x24 }
  - { offsetInCU: 0xC0CC, offset: 0xC0CC, size: 0x8, addend: 0x0, symName: __ZNKSt3__114priority_queueINS_5tupleIJiiiEEENS_6vectorIS2_NS_9allocatorIS2_EEEENS_7greaterIS2_EEE3topB7v160006Ev, symObjAddr: 0x764, symBinAddr: 0x100003A98, symSize: 0x24 }
  - { offsetInCU: 0xC0F2, offset: 0xC0F2, size: 0x8, addend: 0x0, symName: __ZNSt3__114priority_queueINS_5tupleIJiiiEEENS_6vectorIS2_NS_9allocatorIS2_EEEENS_7greaterIS2_EEE3popEv, symObjAddr: 0x7FC, symBinAddr: 0x100003B30, symSize: 0x50 }
  - { offsetInCU: 0xC11A, offset: 0xC11A, size: 0x8, addend: 0x0, symName: __ZNSt3__113basic_ostreamIcNS_11char_traitsIcEEElsB7v160006EPFRS3_S4_E, symObjAddr: 0x880, symBinAddr: 0x100003BB4, symSize: 0x2C }
  - { offsetInCU: 0xC14E, offset: 0xC14E, size: 0x8, addend: 0x0, symName: __ZNSt3__114priority_queueINS_5tupleIJiiiEEENS_6vectorIS2_NS_9allocatorIS2_EEEENS_7greaterIS2_EEED1Ev, symObjAddr: 0x930, symBinAddr: 0x100003C64, symSize: 0x2C }
  - { offsetInCU: 0xC17B, offset: 0xC17B, size: 0x8, addend: 0x0, symName: __ZNSt3__15tupleIJiiiEEC2B7v160006IJiiiELi0EEEDpOT_, symObjAddr: 0x95C, symBinAddr: 0x100003C90, symSize: 0x44 }
  - { offsetInCU: 0xC1ED, offset: 0xC1ED, size: 0x8, addend: 0x0, symName: __ZNSt3__112__tuple_implINS_15__tuple_indicesIJLm0ELm1ELm2EEEEJiiiEEC1B7v160006IJLm0ELm1ELm2EEJiiiEJEJEJiiiEEENS1_IJXspT_EEEENS_13__tuple_typesIJDpT0_EEENS1_IJXspT1_EEEENS6_IJDpT2_EEEDpOT3_, symObjAddr: 0x9A0, symBinAddr: 0x100003CD4, symSize: 0x44 }
  - { offsetInCU: 0xC2BC, offset: 0xC2BC, size: 0x8, addend: 0x0, symName: __ZNSt3__112__tuple_implINS_15__tuple_indicesIJLm0ELm1ELm2EEEEJiiiEEC2B7v160006IJLm0ELm1ELm2EEJiiiEJEJEJiiiEEENS1_IJXspT_EEEENS_13__tuple_typesIJDpT0_EEENS1_IJXspT1_EEEENS6_IJDpT2_EEEDpOT3_, symObjAddr: 0x9E4, symBinAddr: 0x100003D18, symSize: 0x5C }
  - { offsetInCU: 0xC38B, offset: 0xC38B, size: 0x8, addend: 0x0, symName: __ZNSt3__112__tuple_leafILm0EiLb0EEC2B7v160006IivEEOT_, symObjAddr: 0xA40, symBinAddr: 0x100003D74, symSize: 0x24 }
  - { offsetInCU: 0xC3CE, offset: 0xC3CE, size: 0x8, addend: 0x0, symName: __ZNSt3__112__tuple_leafILm1EiLb0EEC2B7v160006IivEEOT_, symObjAddr: 0xA64, symBinAddr: 0x100003D98, symSize: 0x24 }
  - { offsetInCU: 0xC411, offset: 0xC411, size: 0x8, addend: 0x0, symName: __ZNSt3__112__tuple_leafILm2EiLb0EEC2B7v160006IivEEOT_, symObjAddr: 0xA88, symBinAddr: 0x100003DBC, symSize: 0x24 }
  - { offsetInCU: 0xC454, offset: 0xC454, size: 0x8, addend: 0x0, symName: __ZNSt3__112__tuple_leafILm0EiLb0EE3getB7v160006Ev, symObjAddr: 0xAAC, symBinAddr: 0x100003DE0, symSize: 0x14 }
  - { offsetInCU: 0xC47A, offset: 0xC47A, size: 0x8, addend: 0x0, symName: __ZNSt3__112__tuple_leafILm1EiLb0EE3getB7v160006Ev, symObjAddr: 0xAC0, symBinAddr: 0x100003DF4, symSize: 0x14 }
  - { offsetInCU: 0xC4A0, offset: 0xC4A0, size: 0x8, addend: 0x0, symName: __ZNSt3__112__tuple_leafILm2EiLb0EE3getB7v160006Ev, symObjAddr: 0xAD4, symBinAddr: 0x100003E08, symSize: 0x14 }
  - { offsetInCU: 0xC4D0, offset: 0xC4D0, size: 0x8, addend: 0x0, symName: __ZNKSt3__16__lessIiiEclB7v160006ERKiS3_, symObjAddr: 0xB3C, symBinAddr: 0x100003E70, symSize: 0x34 }
  - { offsetInCU: 0xC512, offset: 0xC512, size: 0x8, addend: 0x0, symName: __ZNSt3__114priority_queueINS_5tupleIJiiiEEENS_6vectorIS2_NS_9allocatorIS2_EEEENS_7greaterIS2_EEED2Ev, symObjAddr: 0xB70, symBinAddr: 0x100003EA4, symSize: 0x2C }
  - { offsetInCU: 0xC53F, offset: 0xC53F, size: 0x8, addend: 0x0, symName: __ZNSt3__16vectorINS_5tupleIJiiiEEENS_9allocatorIS2_EEED1B7v160006Ev, symObjAddr: 0xB9C, symBinAddr: 0x100003ED0, symSize: 0x2C }
  - { offsetInCU: 0xC569, offset: 0xC569, size: 0x8, addend: 0x0, symName: __ZNSt3__16vectorINS_5tupleIJiiiEEENS_9allocatorIS2_EEED2B7v160006Ev, symObjAddr: 0xBC8, symBinAddr: 0x100003EFC, symSize: 0x44 }
  - { offsetInCU: 0xC593, offset: 0xC593, size: 0x8, addend: 0x0, symName: __ZNSt3__16vectorINS_5tupleIJiiiEEENS_9allocatorIS2_EEE16__destroy_vectorC1ERS5_, symObjAddr: 0xC0C, symBinAddr: 0x100003F40, symSize: 0x34 }
  - { offsetInCU: 0xC5CC, offset: 0xC5CC, size: 0x8, addend: 0x0, symName: __ZNSt3__16vectorINS_5tupleIJiiiEEENS_9allocatorIS2_EEE16__destroy_vectorclB7v160006Ev, symObjAddr: 0xC4C, symBinAddr: 0x100003F80, symSize: 0x9C }
  - { offsetInCU: 0xC5F2, offset: 0xC5F2, size: 0x8, addend: 0x0, symName: __ZNSt3__16vectorINS_5tupleIJiiiEEENS_9allocatorIS2_EEE16__destroy_vectorC2ERS5_, symObjAddr: 0xCE8, symBinAddr: 0x10000401C, symSize: 0x20 }
  - { offsetInCU: 0xC62B, offset: 0xC62B, size: 0x8, addend: 0x0, symName: __ZNKSt3__16vectorINS_5tupleIJiiiEEENS_9allocatorIS2_EEE17__annotate_deleteB7v160006Ev, symObjAddr: 0xD08, symBinAddr: 0x10000403C, symSize: 0xD4 }
  - { offsetInCU: 0xC651, offset: 0xC651, size: 0x8, addend: 0x0, symName: __ZNSt3__16vectorINS_5tupleIJiiiEEENS_9allocatorIS2_EEE7__clearB7v160006Ev, symObjAddr: 0xDEC, symBinAddr: 0x100004120, symSize: 0x28 }
  - { offsetInCU: 0xC677, offset: 0xC677, size: 0x8, addend: 0x0, symName: __ZNSt3__116allocator_traitsINS_9allocatorINS_5tupleIJiiiEEEEEE10deallocateB7v160006ERS4_PS3_m, symObjAddr: 0xE14, symBinAddr: 0x100004148, symSize: 0x34 }
  - { offsetInCU: 0xC6B9, offset: 0xC6B9, size: 0x8, addend: 0x0, symName: __ZNSt3__16vectorINS_5tupleIJiiiEEENS_9allocatorIS2_EEE7__allocB7v160006Ev, symObjAddr: 0xE48, symBinAddr: 0x10000417C, symSize: 0x28 }
  - { offsetInCU: 0xC6DF, offset: 0xC6DF, size: 0x8, addend: 0x0, symName: __ZNKSt3__16vectorINS_5tupleIJiiiEEENS_9allocatorIS2_EEE8capacityB7v160006Ev, symObjAddr: 0xE70, symBinAddr: 0x1000041A4, symSize: 0x40 }
  - { offsetInCU: 0xC705, offset: 0xC705, size: 0x8, addend: 0x0, symName: __ZNKSt3__16vectorINS_5tupleIJiiiEEENS_9allocatorIS2_EEE31__annotate_contiguous_containerB7v160006EPKvS7_S7_S7_, symObjAddr: 0xEB0, symBinAddr: 0x1000041E4, symSize: 0x20 }
  - { offsetInCU: 0xC757, offset: 0xC757, size: 0x8, addend: 0x0, symName: __ZNKSt3__16vectorINS_5tupleIJiiiEEENS_9allocatorIS2_EEE4dataB7v160006Ev, symObjAddr: 0xED0, symBinAddr: 0x100004204, symSize: 0x28 }
  - { offsetInCU: 0xC77D, offset: 0xC77D, size: 0x8, addend: 0x0, symName: __ZNKSt3__16vectorINS_5tupleIJiiiEEENS_9allocatorIS2_EEE4sizeB7v160006Ev, symObjAddr: 0xEF8, symBinAddr: 0x10000422C, symSize: 0x28 }
  - { offsetInCU: 0xC7A3, offset: 0xC7A3, size: 0x8, addend: 0x0, symName: __ZNSt3__16vectorINS_5tupleIJiiiEEENS_9allocatorIS2_EEE22__base_destruct_at_endB7v160006EPS2_, symObjAddr: 0xF34, symBinAddr: 0x100004268, symSize: 0x8C }
  - { offsetInCU: 0xC7E7, offset: 0xC7E7, size: 0x8, addend: 0x0, symName: __ZNSt3__116allocator_traitsINS_9allocatorINS_5tupleIJiiiEEEEEE7destroyB7v160006IS3_vEEvRS4_PT_, symObjAddr: 0xFC0, symBinAddr: 0x1000042F4, symSize: 0x2C }
  - { offsetInCU: 0xC824, offset: 0xC824, size: 0x8, addend: 0x0, symName: __ZNSt3__19allocatorINS_5tupleIJiiiEEEE7destroyB7v160006EPS2_, symObjAddr: 0xFEC, symBinAddr: 0x100004320, symSize: 0x14 }
  - { offsetInCU: 0xC858, offset: 0xC858, size: 0x8, addend: 0x0, symName: __ZNSt3__19allocatorINS_5tupleIJiiiEEEE10deallocateB7v160006EPS2_m, symObjAddr: 0x1000, symBinAddr: 0x100004334, symSize: 0x44 }
  - { offsetInCU: 0xC89A, offset: 0xC89A, size: 0x8, addend: 0x0, symName: __ZNSt3__117__compressed_pairIPNS_5tupleIJiiiEEENS_9allocatorIS2_EEE6secondB7v160006Ev, symObjAddr: 0x116C, symBinAddr: 0x1000044A0, symSize: 0x24 }
  - { offsetInCU: 0xC8C0, offset: 0xC8C0, size: 0x8, addend: 0x0, symName: __ZNSt3__122__compressed_pair_elemINS_9allocatorINS_5tupleIJiiiEEEEELi1ELb1EE5__getB7v160006Ev, symObjAddr: 0x1190, symBinAddr: 0x1000044C4, symSize: 0x14 }
  - { offsetInCU: 0xC8E6, offset: 0xC8E6, size: 0x8, addend: 0x0, symName: __ZNKSt3__16vectorINS_5tupleIJiiiEEENS_9allocatorIS2_EEE9__end_capB7v160006Ev, symObjAddr: 0x11A4, symBinAddr: 0x1000044D8, symSize: 0x28 }
  - { offsetInCU: 0xC90C, offset: 0xC90C, size: 0x8, addend: 0x0, symName: __ZNKSt3__117__compressed_pairIPNS_5tupleIJiiiEEENS_9allocatorIS2_EEE5firstB7v160006Ev, symObjAddr: 0x11CC, symBinAddr: 0x100004500, symSize: 0x24 }
  - { offsetInCU: 0xC932, offset: 0xC932, size: 0x8, addend: 0x0, symName: __ZNKSt3__122__compressed_pair_elemIPNS_5tupleIJiiiEEELi0ELb0EE5__getB7v160006Ev, symObjAddr: 0x11F0, symBinAddr: 0x100004524, symSize: 0x14 }
  - { offsetInCU: 0xC9FD, offset: 0xC9FD, size: 0x8, addend: 0x0, symName: __ZNKSt3__113basic_istreamIcNS_11char_traitsIcEEE6sentrycvbB7v160006Ev, symObjAddr: 0x1204, symBinAddr: 0x100004538, symSize: 0x1C }
  - { offsetInCU: 0xCA23, offset: 0xCA23, size: 0x8, addend: 0x0, symName: __ZNKSt3__19basic_iosIcNS_11char_traitsIcEEE5rdbufB7v160006Ev, symObjAddr: 0x1220, symBinAddr: 0x100004554, symSize: 0x24 }
  - { offsetInCU: 0xCA4B, offset: 0xCA4B, size: 0x8, addend: 0x0, symName: __ZNSt3__115basic_streambufIcNS_11char_traitsIcEEE6sbumpcB7v160006Ev, symObjAddr: 0x1244, symBinAddr: 0x100004578, symSize: 0x78 }
  - { offsetInCU: 0xCA71, offset: 0xCA71, size: 0x8, addend: 0x0, symName: __ZNSt3__111char_traitsIcE11eq_int_typeEii, symObjAddr: 0x12BC, symBinAddr: 0x1000045F0, symSize: 0x28 }
  - { offsetInCU: 0xCAA2, offset: 0xCAA2, size: 0x8, addend: 0x0, symName: __ZNSt3__111char_traitsIcE3eofEv, symObjAddr: 0x12E4, symBinAddr: 0x100004618, symSize: 0x8 }
  - { offsetInCU: 0xCAB6, offset: 0xCAB6, size: 0x8, addend: 0x0, symName: __ZNSt3__111char_traitsIcE12to_char_typeEi, symObjAddr: 0x12EC, symBinAddr: 0x100004620, symSize: 0x18 }
  - { offsetInCU: 0xCAD9, offset: 0xCAD9, size: 0x8, addend: 0x0, symName: __ZNSt3__18ios_base18__setstate_nothrowB7v160006Ej, symObjAddr: 0x1304, symBinAddr: 0x100004638, symSize: 0x64 }
  - { offsetInCU: 0xCB0E, offset: 0xCB0E, size: 0x8, addend: 0x0, symName: __ZNKSt3__19basic_iosIcNS_11char_traitsIcEEE10exceptionsB7v160006Ev, symObjAddr: 0x1368, symBinAddr: 0x10000469C, symSize: 0x24 }
  - { offsetInCU: 0xCB34, offset: 0xCB34, size: 0x8, addend: 0x0, symName: __ZNSt3__19basic_iosIcNS_11char_traitsIcEEE8setstateB7v160006Ej, symObjAddr: 0x138C, symBinAddr: 0x1000046C0, symSize: 0x2C }
  - { offsetInCU: 0xCB69, offset: 0xCB69, size: 0x8, addend: 0x0, symName: __ZNKSt3__18ios_base5rdbufB7v160006Ev, symObjAddr: 0x13B8, symBinAddr: 0x1000046EC, symSize: 0x18 }
  - { offsetInCU: 0xCB8F, offset: 0xCB8F, size: 0x8, addend: 0x0, symName: __ZNSt3__111char_traitsIcE11to_int_typeEc, symObjAddr: 0x13D0, symBinAddr: 0x100004704, symSize: 0x14 }
  - { offsetInCU: 0xCBB2, offset: 0xCBB2, size: 0x8, addend: 0x0, symName: __ZNKSt3__18ios_base10exceptionsB7v160006Ev, symObjAddr: 0x13E4, symBinAddr: 0x100004718, symSize: 0x18 }
  - { offsetInCU: 0xCBDA, offset: 0xCBDA, size: 0x8, addend: 0x0, symName: __ZNSt3__18ios_base8setstateB7v160006Ej, symObjAddr: 0x13FC, symBinAddr: 0x100004730, symSize: 0x34 }
  - { offsetInCU: 0xCC11, offset: 0xCC11, size: 0x8, addend: 0x0, symName: __ZNSt3__114priority_queueINS_5tupleIJiiiEEENS_6vectorIS2_NS_9allocatorIS2_EEEENS_7greaterIS2_EEEC2B7v160006Ev, symObjAddr: 0x1430, symBinAddr: 0x100004764, symSize: 0x2C }
  - { offsetInCU: 0xCC3B, offset: 0xCC3B, size: 0x8, addend: 0x0, symName: __ZNSt3__16vectorINS_5tupleIJiiiEEENS_9allocatorIS2_EEEC1B7v160006Ev, symObjAddr: 0x145C, symBinAddr: 0x100004790, symSize: 0x2C }
  - { offsetInCU: 0xCC65, offset: 0xCC65, size: 0x8, addend: 0x0, symName: __ZNSt3__16vectorINS_5tupleIJiiiEEENS_9allocatorIS2_EEEC2B7v160006Ev, symObjAddr: 0x1488, symBinAddr: 0x1000047BC, symSize: 0x58 }
  - { offsetInCU: 0xCC9B, offset: 0xCC9B, size: 0x8, addend: 0x0, symName: __ZNSt3__117__compressed_pairIPNS_5tupleIJiiiEEENS_9allocatorIS2_EEEC1B7v160006IDnNS_18__default_init_tagEEEOT_OT0_, symObjAddr: 0x14E0, symBinAddr: 0x100004814, symSize: 0x3C }
  - { offsetInCU: 0xCCF3, offset: 0xCCF3, size: 0x8, addend: 0x0, symName: __ZNSt3__117__compressed_pairIPNS_5tupleIJiiiEEENS_9allocatorIS2_EEEC2B7v160006IDnNS_18__default_init_tagEEEOT_OT0_, symObjAddr: 0x152C, symBinAddr: 0x100004860, symSize: 0x40 }
  - { offsetInCU: 0xCD4B, offset: 0xCD4B, size: 0x8, addend: 0x0, symName: __ZNSt3__122__compressed_pair_elemIPNS_5tupleIJiiiEEELi0ELb0EEC2B7v160006IDnvEEOT_, symObjAddr: 0x156C, symBinAddr: 0x1000048A0, symSize: 0x1C }
  - { offsetInCU: 0xCD8D, offset: 0xCD8D, size: 0x8, addend: 0x0, symName: __ZNSt3__122__compressed_pair_elemINS_9allocatorINS_5tupleIJiiiEEEEELi1ELb1EEC2B7v160006ENS_18__default_init_tagE, symObjAddr: 0x1588, symBinAddr: 0x1000048BC, symSize: 0x2C }
  - { offsetInCU: 0xCDC2, offset: 0xCDC2, size: 0x8, addend: 0x0, symName: __ZNSt3__19allocatorINS_5tupleIJiiiEEEEC2B7v160006Ev, symObjAddr: 0x15B4, symBinAddr: 0x1000048E8, symSize: 0x2C }
  - { offsetInCU: 0xCDEC, offset: 0xCDEC, size: 0x8, addend: 0x0, symName: __ZNSt3__116__non_trivial_ifILb1ENS_9allocatorINS_5tupleIJiiiEEEEEEC2B7v160006Ev, symObjAddr: 0x15E0, symBinAddr: 0x100004914, symSize: 0x14 }
  - { offsetInCU: 0xCE16, offset: 0xCE16, size: 0x8, addend: 0x0, symName: __ZNSt3__16vectorINS_5tupleIJiiiEEENS_9allocatorIS2_EEE9push_backB7v160006EOS2_, symObjAddr: 0x15F4, symBinAddr: 0x100004928, symSize: 0x6C }
  - { offsetInCU: 0xCE4D, offset: 0xCE4D, size: 0x8, addend: 0x0, symName: __ZNSt3__16vectorINS_5tupleIJiiiEEENS_9allocatorIS2_EEE5beginB7v160006Ev, symObjAddr: 0x16A0, symBinAddr: 0x1000049D4, symSize: 0x30 }
  - { offsetInCU: 0xCE75, offset: 0xCE75, size: 0x8, addend: 0x0, symName: __ZNSt3__16vectorINS_5tupleIJiiiEEENS_9allocatorIS2_EEE3endB7v160006Ev, symObjAddr: 0x16D0, symBinAddr: 0x100004A04, symSize: 0x30 }
  - { offsetInCU: 0xCE9D, offset: 0xCE9D, size: 0x8, addend: 0x0, symName: __ZNSt3__16vectorINS_5tupleIJiiiEEENS_9allocatorIS2_EEE9__end_capB7v160006Ev, symObjAddr: 0x1700, symBinAddr: 0x100004A34, symSize: 0x28 }
  - { offsetInCU: 0xCEC3, offset: 0xCEC3, size: 0x8, addend: 0x0, symName: __ZNSt3__16vectorINS_5tupleIJiiiEEENS_9allocatorIS2_EEE22__construct_one_at_endB7v160006IJS2_EEEvDpOT_, symObjAddr: 0x1728, symBinAddr: 0x100004A5C, symSize: 0x90 }
  - { offsetInCU: 0xCF12, offset: 0xCF12, size: 0x8, addend: 0x0, symName: __ZNSt3__16vectorINS_5tupleIJiiiEEENS_9allocatorIS2_EEE21__push_back_slow_pathIS2_EEvOT_, symObjAddr: 0x17B8, symBinAddr: 0x100004AEC, symSize: 0xD8 }
  - { offsetInCU: 0xCF70, offset: 0xCF70, size: 0x8, addend: 0x0, symName: __ZNSt3__117__compressed_pairIPNS_5tupleIJiiiEEENS_9allocatorIS2_EEE5firstB7v160006Ev, symObjAddr: 0x1890, symBinAddr: 0x100004BC4, symSize: 0x24 }
  - { offsetInCU: 0xCF96, offset: 0xCF96, size: 0x8, addend: 0x0, symName: __ZNSt3__122__compressed_pair_elemIPNS_5tupleIJiiiEEELi0ELb0EE5__getB7v160006Ev, symObjAddr: 0x18B4, symBinAddr: 0x100004BE8, symSize: 0x14 }
  - { offsetInCU: 0xCFD5, offset: 0xCFD5, size: 0x8, addend: 0x0, symName: __ZNSt3__16vectorINS_5tupleIJiiiEEENS_9allocatorIS2_EEE21_ConstructTransactionC1B7v160006ERS5_m, symObjAddr: 0x18C8, symBinAddr: 0x100004BFC, symSize: 0x3C }
  - { offsetInCU: 0xD01D, offset: 0xD01D, size: 0x8, addend: 0x0, symName: __ZNSt3__116allocator_traitsINS_9allocatorINS_5tupleIJiiiEEEEEE9constructB7v160006IS3_JS3_EvEEvRS4_PT_DpOT0_, symObjAddr: 0x1904, symBinAddr: 0x100004C38, symSize: 0x34 }
  - { offsetInCU: 0xD074, offset: 0xD074, size: 0x8, addend: 0x0, symName: __ZNSt3__16vectorINS_5tupleIJiiiEEENS_9allocatorIS2_EEE21_ConstructTransactionD1B7v160006Ev, symObjAddr: 0x1938, symBinAddr: 0x100004C6C, symSize: 0x2C }
  - { offsetInCU: 0xD09E, offset: 0xD09E, size: 0x8, addend: 0x0, symName: __ZNSt3__16vectorINS_5tupleIJiiiEEENS_9allocatorIS2_EEE21_ConstructTransactionC2B7v160006ERS5_m, symObjAddr: 0x1964, symBinAddr: 0x100004C98, symSize: 0x4C }
  - { offsetInCU: 0xD0E6, offset: 0xD0E6, size: 0x8, addend: 0x0, symName: __ZNSt3__19allocatorINS_5tupleIJiiiEEEE9constructB7v160006IS2_JS2_EEEvPT_DpOT0_, symObjAddr: 0x19B0, symBinAddr: 0x100004CE4, symSize: 0x30 }
  - { offsetInCU: 0xD13C, offset: 0xD13C, size: 0x8, addend: 0x0, symName: __ZNSt3__16vectorINS_5tupleIJiiiEEENS_9allocatorIS2_EEE21_ConstructTransactionD2B7v160006Ev, symObjAddr: 0x19E0, symBinAddr: 0x100004D14, symSize: 0x20 }
  - { offsetInCU: 0xD166, offset: 0xD166, size: 0x8, addend: 0x0, symName: __ZNKSt3__16vectorINS_5tupleIJiiiEEENS_9allocatorIS2_EEE11__recommendB7v160006Em, symObjAddr: 0x1A00, symBinAddr: 0x100004D34, symSize: 0xB4 }
  - { offsetInCU: 0xD1BB, offset: 0xD1BB, size: 0x8, addend: 0x0, symName: __ZNSt3__114__split_bufferINS_5tupleIJiiiEEERNS_9allocatorIS2_EEEC1EmmS5_, symObjAddr: 0x1AB4, symBinAddr: 0x100004DE8, symSize: 0x44 }
  - { offsetInCU: 0xD211, offset: 0xD211, size: 0x8, addend: 0x0, symName: __ZNSt3__114__split_bufferINS_5tupleIJiiiEEERNS_9allocatorIS2_EEED1Ev, symObjAddr: 0x1C10, symBinAddr: 0x100004F44, symSize: 0x2C }
  - { offsetInCU: 0xD23D, offset: 0xD23D, size: 0x8, addend: 0x0, symName: __ZNKSt3__16vectorINS_5tupleIJiiiEEENS_9allocatorIS2_EEE8max_sizeEv, symObjAddr: 0x1C3C, symBinAddr: 0x100004F70, symSize: 0x60 }
  - { offsetInCU: 0xD265, offset: 0xD265, size: 0x8, addend: 0x0, symName: __ZNKSt3__16vectorINS_5tupleIJiiiEEENS_9allocatorIS2_EEE20__throw_length_errorB7v160006Ev, symObjAddr: 0x1C9C, symBinAddr: 0x100004FD0, symSize: 0x1C }
  - { offsetInCU: 0xD295, offset: 0xD295, size: 0x8, addend: 0x0, symName: __ZNSt3__116allocator_traitsINS_9allocatorINS_5tupleIJiiiEEEEEE8max_sizeB7v160006IS4_vEEmRKS4_, symObjAddr: 0x1D10, symBinAddr: 0x100005044, symSize: 0x24 }
  - { offsetInCU: 0xD2C3, offset: 0xD2C3, size: 0x8, addend: 0x0, symName: __ZNKSt3__16vectorINS_5tupleIJiiiEEENS_9allocatorIS2_EEE7__allocB7v160006Ev, symObjAddr: 0x1D34, symBinAddr: 0x100005068, symSize: 0x28 }
  - { offsetInCU: 0xD2E9, offset: 0xD2E9, size: 0x8, addend: 0x0, symName: __ZNSt3__114numeric_limitsIlE3maxB7v160006Ev, symObjAddr: 0x1D5C, symBinAddr: 0x100005090, symSize: 0x14 }
  - { offsetInCU: 0xD311, offset: 0xD311, size: 0x8, addend: 0x0, symName: __ZNKSt3__16__lessImmEclB7v160006ERKmS3_, symObjAddr: 0x1DC4, symBinAddr: 0x1000050F8, symSize: 0x34 }
  - { offsetInCU: 0xD353, offset: 0xD353, size: 0x8, addend: 0x0, symName: __ZNKSt3__19allocatorINS_5tupleIJiiiEEEE8max_sizeB7v160006Ev, symObjAddr: 0x1DF8, symBinAddr: 0x10000512C, symSize: 0x18 }
  - { offsetInCU: 0xD379, offset: 0xD379, size: 0x8, addend: 0x0, symName: __ZNKSt3__117__compressed_pairIPNS_5tupleIJiiiEEENS_9allocatorIS2_EEE6secondB7v160006Ev, symObjAddr: 0x1E10, symBinAddr: 0x100005144, symSize: 0x24 }
  - { offsetInCU: 0xD39F, offset: 0xD39F, size: 0x8, addend: 0x0, symName: __ZNKSt3__122__compressed_pair_elemINS_9allocatorINS_5tupleIJiiiEEEEELi1ELb1EE5__getB7v160006Ev, symObjAddr: 0x1E34, symBinAddr: 0x100005168, symSize: 0x14 }
  - { offsetInCU: 0xD3C5, offset: 0xD3C5, size: 0x8, addend: 0x0, symName: __ZNSt3__123__libcpp_numeric_limitsIlLb1EE3maxB7v160006Ev, symObjAddr: 0x1E48, symBinAddr: 0x10000517C, symSize: 0x8 }
  - { offsetInCU: 0xD3D9, offset: 0xD3D9, size: 0x8, addend: 0x0, symName: __ZNSt12length_errorC1B7v160006EPKc, symObjAddr: 0x1EB4, symBinAddr: 0x1000051E8, symSize: 0x34 }
  - { offsetInCU: 0xD411, offset: 0xD411, size: 0x8, addend: 0x0, symName: __ZNSt12length_errorC2B7v160006EPKc, symObjAddr: 0x1EE8, symBinAddr: 0x10000521C, symSize: 0x4C }
  - { offsetInCU: 0xD449, offset: 0xD449, size: 0x8, addend: 0x0, symName: __ZNSt3__114__split_bufferINS_5tupleIJiiiEEERNS_9allocatorIS2_EEEC2EmmS5_, symObjAddr: 0x1F88, symBinAddr: 0x1000052BC, symSize: 0xE0 }
  - { offsetInCU: 0xD4BC, offset: 0xD4BC, size: 0x8, addend: 0x0, symName: __ZNSt3__117__compressed_pairIPNS_5tupleIJiiiEEERNS_9allocatorIS2_EEEC1B7v160006IDnS6_EEOT_OT0_, symObjAddr: 0x2068, symBinAddr: 0x10000539C, symSize: 0x3C }
  - { offsetInCU: 0xD514, offset: 0xD514, size: 0x8, addend: 0x0, symName: __ZNSt3__114__split_bufferINS_5tupleIJiiiEEERNS_9allocatorIS2_EEE7__allocB7v160006Ev, symObjAddr: 0x20E4, symBinAddr: 0x100005418, symSize: 0x28 }
  - { offsetInCU: 0xD53A, offset: 0xD53A, size: 0x8, addend: 0x0, symName: __ZNSt3__114__split_bufferINS_5tupleIJiiiEEERNS_9allocatorIS2_EEE9__end_capB7v160006Ev, symObjAddr: 0x210C, symBinAddr: 0x100005440, symSize: 0x28 }
  - { offsetInCU: 0xD560, offset: 0xD560, size: 0x8, addend: 0x0, symName: __ZNSt3__117__compressed_pairIPNS_5tupleIJiiiEEERNS_9allocatorIS2_EEEC2B7v160006IDnS6_EEOT_OT0_, symObjAddr: 0x2134, symBinAddr: 0x100005468, symSize: 0x48 }
  - { offsetInCU: 0xD5B8, offset: 0xD5B8, size: 0x8, addend: 0x0, symName: __ZNSt3__122__compressed_pair_elemIRNS_9allocatorINS_5tupleIJiiiEEEEELi1ELb0EEC2B7v160006IS5_vEEOT_, symObjAddr: 0x217C, symBinAddr: 0x1000054B0, symSize: 0x20 }
  - { offsetInCU: 0xD5FA, offset: 0xD5FA, size: 0x8, addend: 0x0, symName: __ZNSt3__19allocatorINS_5tupleIJiiiEEEE8allocateB7v160006Em, symObjAddr: 0x219C, symBinAddr: 0x1000054D0, symSize: 0x5C }
  - { offsetInCU: 0xD62E, offset: 0xD62E, size: 0x8, addend: 0x0, symName: __ZNSt3__117__compressed_pairIPNS_5tupleIJiiiEEERNS_9allocatorIS2_EEE6secondB7v160006Ev, symObjAddr: 0x22DC, symBinAddr: 0x100005610, symSize: 0x28 }
  - { offsetInCU: 0xD654, offset: 0xD654, size: 0x8, addend: 0x0, symName: __ZNSt3__122__compressed_pair_elemIRNS_9allocatorINS_5tupleIJiiiEEEEELi1ELb0EE5__getB7v160006Ev, symObjAddr: 0x2304, symBinAddr: 0x100005638, symSize: 0x18 }
  - { offsetInCU: 0xD67A, offset: 0xD67A, size: 0x8, addend: 0x0, symName: __ZNSt3__117__compressed_pairIPNS_5tupleIJiiiEEERNS_9allocatorIS2_EEE5firstB7v160006Ev, symObjAddr: 0x231C, symBinAddr: 0x100005650, symSize: 0x24 }
  - { offsetInCU: 0xD6A0, offset: 0xD6A0, size: 0x8, addend: 0x0, symName: __ZNSt3__116reverse_iteratorIPNS_5tupleIJiiiEEEEC1B7v160006ES3_, symObjAddr: 0x246C, symBinAddr: 0x1000057A0, symSize: 0x34 }
  - { offsetInCU: 0xD6D8, offset: 0xD6D8, size: 0x8, addend: 0x0, symName: __ZNKSt3__116reverse_iteratorIPNS_5tupleIJiiiEEEE4baseB7v160006Ev, symObjAddr: 0x24A0, symBinAddr: 0x1000057D4, symSize: 0x18 }
  - { offsetInCU: 0xD6FE, offset: 0xD6FE, size: 0x8, addend: 0x0, symName: __ZNKSt3__16vectorINS_5tupleIJiiiEEENS_9allocatorIS2_EEE14__annotate_newB7v160006Em, symObjAddr: 0x24F4, symBinAddr: 0x100005828, symSize: 0xC8 }
  - { offsetInCU: 0xD733, offset: 0xD733, size: 0x8, addend: 0x0, symName: __ZNSt3__129_AllocatorDestroyRangeReverseINS_9allocatorINS_5tupleIJiiiEEEEENS_16reverse_iteratorIPS3_EEEC1B7v160006ERS4_RS7_SA_, symObjAddr: 0x2618, symBinAddr: 0x10000594C, symSize: 0x44 }
  - { offsetInCU: 0xD78A, offset: 0xD78A, size: 0x8, addend: 0x0, symName: __ZNKSt3__116reverse_iteratorIPNS_5tupleIJiiiEEEEdeB7v160006Ev, symObjAddr: 0x26C8, symBinAddr: 0x1000059FC, symSize: 0x28 }
  - { offsetInCU: 0xD7BE, offset: 0xD7BE, size: 0x8, addend: 0x0, symName: __ZNSt3__116reverse_iteratorIPNS_5tupleIJiiiEEEEppB7v160006Ev, symObjAddr: 0x26F0, symBinAddr: 0x100005A24, symSize: 0x20 }
  - { offsetInCU: 0xD7E4, offset: 0xD7E4, size: 0x8, addend: 0x0, symName: __ZNSt3__128__exception_guard_exceptionsINS_29_AllocatorDestroyRangeReverseINS_9allocatorINS_5tupleIJiiiEEEEENS_16reverse_iteratorIPS4_EEEEE10__completeB7v160006Ev, symObjAddr: 0x2710, symBinAddr: 0x100005A44, symSize: 0x1C }
  - { offsetInCU: 0xD80A, offset: 0xD80A, size: 0x8, addend: 0x0, symName: __ZNSt3__128__exception_guard_exceptionsINS_29_AllocatorDestroyRangeReverseINS_9allocatorINS_5tupleIJiiiEEEEENS_16reverse_iteratorIPS4_EEEEED1B7v160006Ev, symObjAddr: 0x272C, symBinAddr: 0x100005A60, symSize: 0x2C }
  - { offsetInCU: 0xD834, offset: 0xD834, size: 0x8, addend: 0x0, symName: __ZNSt3__128__exception_guard_exceptionsINS_29_AllocatorDestroyRangeReverseINS_9allocatorINS_5tupleIJiiiEEEEENS_16reverse_iteratorIPS4_EEEEEC1B7v160006ES9_, symObjAddr: 0x2758, symBinAddr: 0x100005A8C, symSize: 0x34 }
  - { offsetInCU: 0xD86D, offset: 0xD86D, size: 0x8, addend: 0x0, symName: __ZNSt3__128__exception_guard_exceptionsINS_29_AllocatorDestroyRangeReverseINS_9allocatorINS_5tupleIJiiiEEEEENS_16reverse_iteratorIPS4_EEEEEC2B7v160006ES9_, symObjAddr: 0x278C, symBinAddr: 0x100005AC0, symSize: 0x30 }
  - { offsetInCU: 0xD8A6, offset: 0xD8A6, size: 0x8, addend: 0x0, symName: __ZNSt3__129_AllocatorDestroyRangeReverseINS_9allocatorINS_5tupleIJiiiEEEEENS_16reverse_iteratorIPS3_EEEC2B7v160006ERS4_RS7_SA_, symObjAddr: 0x27BC, symBinAddr: 0x100005AF0, symSize: 0x38 }
  - { offsetInCU: 0xD902, offset: 0xD902, size: 0x8, addend: 0x0, symName: __ZNSt3__119__to_address_helperINS_16reverse_iteratorIPNS_5tupleIJiiiEEEEEvE6__callB7v160006ERKS5_, symObjAddr: 0x27F4, symBinAddr: 0x100005B28, symSize: 0x38 }
  - { offsetInCU: 0xD925, offset: 0xD925, size: 0x8, addend: 0x0, symName: __ZNKSt3__116reverse_iteratorIPNS_5tupleIJiiiEEEEptB7v160006Ev, symObjAddr: 0x282C, symBinAddr: 0x100005B60, symSize: 0x24 }
  - { offsetInCU: 0xD94B, offset: 0xD94B, size: 0x8, addend: 0x0, symName: __ZNSt3__128__exception_guard_exceptionsINS_29_AllocatorDestroyRangeReverseINS_9allocatorINS_5tupleIJiiiEEEEENS_16reverse_iteratorIPS4_EEEEED2B7v160006Ev, symObjAddr: 0x2850, symBinAddr: 0x100005B84, symSize: 0x50 }
  - { offsetInCU: 0xD975, offset: 0xD975, size: 0x8, addend: 0x0, symName: __ZNKSt3__129_AllocatorDestroyRangeReverseINS_9allocatorINS_5tupleIJiiiEEEEENS_16reverse_iteratorIPS3_EEEclB7v160006Ev, symObjAddr: 0x28A0, symBinAddr: 0x100005BD4, symSize: 0xB4 }
  - { offsetInCU: 0xD99C, offset: 0xD99C, size: 0x8, addend: 0x0, symName: __ZNSt3__116reverse_iteratorINS0_IPNS_5tupleIJiiiEEEEEEC1B7v160006ES4_, symObjAddr: 0x29C4, symBinAddr: 0x100005CF8, symSize: 0x3C }
  - { offsetInCU: 0xD9D4, offset: 0xD9D4, size: 0x8, addend: 0x0, symName: __ZNSt3__116reverse_iteratorINS0_IPNS_5tupleIJiiiEEEEEEppB7v160006Ev, symObjAddr: 0x2A84, symBinAddr: 0x100005DB8, symSize: 0x30 }
  - { offsetInCU: 0xD9FA, offset: 0xD9FA, size: 0x8, addend: 0x0, symName: __ZNKSt3__116reverse_iteratorINS0_IPNS_5tupleIJiiiEEEEEE4baseB7v160006Ev, symObjAddr: 0x2AB4, symBinAddr: 0x100005DE8, symSize: 0x24 }
  - { offsetInCU: 0xDA25, offset: 0xDA25, size: 0x8, addend: 0x0, symName: __ZNSt3__119__to_address_helperINS_16reverse_iteratorINS1_IPNS_5tupleIJiiiEEEEEEEvE6__callB7v160006ERKS6_, symObjAddr: 0x2AD8, symBinAddr: 0x100005E0C, symSize: 0x38 }
  - { offsetInCU: 0xDA48, offset: 0xDA48, size: 0x8, addend: 0x0, symName: __ZNKSt3__116reverse_iteratorINS0_IPNS_5tupleIJiiiEEEEEEptB7v160006Ev, symObjAddr: 0x2B10, symBinAddr: 0x100005E44, symSize: 0x24 }
  - { offsetInCU: 0xDA6E, offset: 0xDA6E, size: 0x8, addend: 0x0, symName: __ZNKSt3__116reverse_iteratorINS0_IPNS_5tupleIJiiiEEEEEEdeB7v160006Ev, symObjAddr: 0x2B34, symBinAddr: 0x100005E68, symSize: 0x34 }
  - { offsetInCU: 0xDAA2, offset: 0xDAA2, size: 0x8, addend: 0x0, symName: __ZNSt3__116reverse_iteratorIPNS_5tupleIJiiiEEEEmmB7v160006Ev, symObjAddr: 0x2B68, symBinAddr: 0x100005E9C, symSize: 0x20 }
  - { offsetInCU: 0xDAC8, offset: 0xDAC8, size: 0x8, addend: 0x0, symName: __ZNSt3__116reverse_iteratorINS0_IPNS_5tupleIJiiiEEEEEEC2B7v160006ES4_, symObjAddr: 0x2B88, symBinAddr: 0x100005EBC, symSize: 0x2C }
  - { offsetInCU: 0xDB00, offset: 0xDB00, size: 0x8, addend: 0x0, symName: __ZNSt3__116reverse_iteratorIPNS_5tupleIJiiiEEEEC2B7v160006ES3_, symObjAddr: 0x2BB4, symBinAddr: 0x100005EE8, symSize: 0x28 }
  - { offsetInCU: 0xDB38, offset: 0xDB38, size: 0x8, addend: 0x0, symName: __ZNSt3__114__split_bufferINS_5tupleIJiiiEEERNS_9allocatorIS2_EEED2Ev, symObjAddr: 0x2BDC, symBinAddr: 0x100005F10, symSize: 0x8C }
  - { offsetInCU: 0xDB64, offset: 0xDB64, size: 0x8, addend: 0x0, symName: __ZNSt3__114__split_bufferINS_5tupleIJiiiEEERNS_9allocatorIS2_EEE5clearB7v160006Ev, symObjAddr: 0x2C68, symBinAddr: 0x100005F9C, symSize: 0x28 }
  - { offsetInCU: 0xDB8A, offset: 0xDB8A, size: 0x8, addend: 0x0, symName: __ZNKSt3__114__split_bufferINS_5tupleIJiiiEEERNS_9allocatorIS2_EEE8capacityB7v160006Ev, symObjAddr: 0x2C90, symBinAddr: 0x100005FC4, symSize: 0x40 }
  - { offsetInCU: 0xDBB0, offset: 0xDBB0, size: 0x8, addend: 0x0, symName: __ZNSt3__114__split_bufferINS_5tupleIJiiiEEERNS_9allocatorIS2_EEE17__destruct_at_endB7v160006EPS2_, symObjAddr: 0x2CD0, symBinAddr: 0x100006004, symSize: 0x2C }
  - { offsetInCU: 0xDBE4, offset: 0xDBE4, size: 0x8, addend: 0x0, symName: __ZNSt3__114__split_bufferINS_5tupleIJiiiEEERNS_9allocatorIS2_EEE17__destruct_at_endB7v160006EPS2_NS_17integral_constantIbLb0EEE, symObjAddr: 0x2CFC, symBinAddr: 0x100006030, symSize: 0x80 }
  - { offsetInCU: 0xDC25, offset: 0xDC25, size: 0x8, addend: 0x0, symName: __ZNKSt3__114__split_bufferINS_5tupleIJiiiEEERNS_9allocatorIS2_EEE9__end_capB7v160006Ev, symObjAddr: 0x2D7C, symBinAddr: 0x1000060B0, symSize: 0x28 }
  - { offsetInCU: 0xDC4B, offset: 0xDC4B, size: 0x8, addend: 0x0, symName: __ZNKSt3__117__compressed_pairIPNS_5tupleIJiiiEEERNS_9allocatorIS2_EEE5firstB7v160006Ev, symObjAddr: 0x2DA4, symBinAddr: 0x1000060D8, symSize: 0x24 }
  - { offsetInCU: 0xDC71, offset: 0xDC71, size: 0x8, addend: 0x0, symName: __ZNKSt3__111__wrap_iterIPNS_5tupleIJiiiEEEE4baseB7v160006Ev, symObjAddr: 0x2FD0, symBinAddr: 0x100006304, symSize: 0x18 }
  - { offsetInCU: 0xDC97, offset: 0xDC97, size: 0x8, addend: 0x0, symName: __ZNKSt3__111__wrap_iterIPNS_5tupleIJiiiEEEEplB7v160006El, symObjAddr: 0x2FE8, symBinAddr: 0x10000631C, symSize: 0x3C }
  - { offsetInCU: 0xDCD9, offset: 0xDCD9, size: 0x8, addend: 0x0, symName: __ZNKSt3__17greaterINS_5tupleIJiiiEEEEclB7v160006ERKS2_S5_, symObjAddr: 0x3024, symBinAddr: 0x100006358, symSize: 0x34 }
  - { offsetInCU: 0xDD1D, offset: 0xDD1D, size: 0x8, addend: 0x0, symName: __ZNKSt3__111__wrap_iterIPNS_5tupleIJiiiEEEEdeB7v160006Ev, symObjAddr: 0x3058, symBinAddr: 0x10000638C, symSize: 0x18 }
  - { offsetInCU: 0xDD43, offset: 0xDD43, size: 0x8, addend: 0x0, symName: __ZNSt3__111__wrap_iterIPNS_5tupleIJiiiEEEEmmB7v160006Ev, symObjAddr: 0x3070, symBinAddr: 0x1000063A4, symSize: 0x20 }
  - { offsetInCU: 0xDD69, offset: 0xDD69, size: 0x8, addend: 0x0, symName: __ZNSt3__18_IterOpsINS_17_ClassicAlgPolicyEE11__iter_moveB7v160006IRNS_11__wrap_iterIPNS_5tupleIJiiiEEEEEEENS_9enable_ifIXsr12is_referenceIDTdeclsr3stdE7declvalIRT_EEEEE5valueEDTclsr3stdE4movedeclsr3stdE7declvalISC_EEEEE4typeEOSB_, symObjAddr: 0x3090, symBinAddr: 0x1000063C4, symSize: 0x28 }
  - { offsetInCU: 0xDD95, offset: 0xDD95, size: 0x8, addend: 0x0, symName: __ZNSt3__15tupleIJiiiEEaSB7v160006EOS1_, symObjAddr: 0x30B8, symBinAddr: 0x1000063EC, symSize: 0x3C }
  - { offsetInCU: 0xDDCA, offset: 0xDDCA, size: 0x8, addend: 0x0, symName: __ZNSt3__111__wrap_iterIPNS_5tupleIJiiiEEEEpLB7v160006El, symObjAddr: 0x30F4, symBinAddr: 0x100006428, symSize: 0x30 }
  - { offsetInCU: 0xDE03, offset: 0xDE03, size: 0x8, addend: 0x0, symName: __ZNSt3__112__tuple_lessILm3EEclB7v160006INS_5tupleIJiiiEEES4_EEbRKT_RKT0_, symObjAddr: 0x3188, symBinAddr: 0x1000064BC, symSize: 0xD8 }
  - { offsetInCU: 0xDE6D, offset: 0xDE6D, size: 0x8, addend: 0x0, symName: __ZNSt3__112__tuple_lessILm2EEclB7v160006INS_5tupleIJiiiEEES4_EEbRKT_RKT0_, symObjAddr: 0x3284, symBinAddr: 0x1000065B8, symSize: 0xDC }
  - { offsetInCU: 0xDED2, offset: 0xDED2, size: 0x8, addend: 0x0, symName: __ZNKSt3__112__tuple_leafILm0EiLb0EE3getB7v160006Ev, symObjAddr: 0x3360, symBinAddr: 0x100006694, symSize: 0x14 }
  - { offsetInCU: 0xDEFD, offset: 0xDEFD, size: 0x8, addend: 0x0, symName: __ZNSt3__112__tuple_lessILm1EEclB7v160006INS_5tupleIJiiiEEES4_EEbRKT_RKT0_, symObjAddr: 0x339C, symBinAddr: 0x1000066D0, symSize: 0xDC }
  - { offsetInCU: 0xDF62, offset: 0xDF62, size: 0x8, addend: 0x0, symName: __ZNKSt3__112__tuple_leafILm1EiLb0EE3getB7v160006Ev, symObjAddr: 0x3478, symBinAddr: 0x1000067AC, symSize: 0x14 }
  - { offsetInCU: 0xDF8D, offset: 0xDF8D, size: 0x8, addend: 0x0, symName: __ZNSt3__112__tuple_lessILm0EEclB7v160006INS_5tupleIJiiiEEES4_EEbRKT_RKT0_, symObjAddr: 0x34B4, symBinAddr: 0x1000067E8, symSize: 0x20 }
  - { offsetInCU: 0xDFDB, offset: 0xDFDB, size: 0x8, addend: 0x0, symName: __ZNKSt3__112__tuple_leafILm2EiLb0EE3getB7v160006Ev, symObjAddr: 0x34D4, symBinAddr: 0x100006808, symSize: 0x14 }
  - { offsetInCU: 0xE001, offset: 0xE001, size: 0x8, addend: 0x0, symName: __ZNSt3__18_IterOpsINS_17_ClassicAlgPolicyEE25__validate_iter_referenceB7v160006IRNS_11__wrap_iterIPNS_5tupleIJiiiEEEEEEEvv, symObjAddr: 0x34E8, symBinAddr: 0x10000681C, symSize: 0x4 }
  - { offsetInCU: 0xE01F, offset: 0xE01F, size: 0x8, addend: 0x0, symName: __ZNSt3__16vectorINS_5tupleIJiiiEEENS_9allocatorIS2_EEE11__make_iterB7v160006EPS2_, symObjAddr: 0x3628, symBinAddr: 0x10000695C, symSize: 0x34 }
  - { offsetInCU: 0xE054, offset: 0xE054, size: 0x8, addend: 0x0, symName: __ZNSt3__111__wrap_iterIPNS_5tupleIJiiiEEEEC1B7v160006EPKvS3_, symObjAddr: 0x365C, symBinAddr: 0x100006990, symSize: 0x3C }
  - { offsetInCU: 0xE09A, offset: 0xE09A, size: 0x8, addend: 0x0, symName: __ZNSt3__111__wrap_iterIPNS_5tupleIJiiiEEEEC2B7v160006EPKvS3_, symObjAddr: 0x3698, symBinAddr: 0x1000069CC, symSize: 0x24 }
  - { offsetInCU: 0xE0E0, offset: 0xE0E0, size: 0x8, addend: 0x0, symName: __ZNKSt3__16vectorINS_5tupleIJiiiEEENS_9allocatorIS2_EEE5frontB7v160006Ev, symObjAddr: 0x36BC, symBinAddr: 0x1000069F0, symSize: 0x18 }
  - { offsetInCU: 0xE106, offset: 0xE106, size: 0x8, addend: 0x0, symName: __ZNSt3__16vectorINS_5tupleIJiiiEEENS_9allocatorIS2_EEE8pop_backEv, symObjAddr: 0x372C, symBinAddr: 0x100006A60, symSize: 0x2C }
  - { offsetInCU: 0xE12E, offset: 0xE12E, size: 0x8, addend: 0x0, symName: __ZNSt3__111__wrap_iterIPNS_5tupleIJiiiEEEEppB7v160006Ev, symObjAddr: 0x3A18, symBinAddr: 0x100006D4C, symSize: 0x20 }
  - { offsetInCU: 0xE154, offset: 0xE154, size: 0x8, addend: 0x0, symName: __ZNSt3__16vectorINS_5tupleIJiiiEEENS_9allocatorIS2_EEE17__destruct_at_endB7v160006EPS2_, symObjAddr: 0x3A38, symBinAddr: 0x100006D6C, symSize: 0x60 }
  - { offsetInCU: 0xE198, offset: 0xE198, size: 0x8, addend: 0x0, symName: __ZNSt3__16vectorINS_5tupleIJiiiEEENS_9allocatorIS2_EEE27__invalidate_iterators_pastB7v160006EPS2_, symObjAddr: 0x3A98, symBinAddr: 0x100006DCC, symSize: 0x14 }
  - { offsetInCU: 0xE1CF, offset: 0xE1CF, size: 0x8, addend: 0x0, symName: __ZNKSt3__16vectorINS_5tupleIJiiiEEENS_9allocatorIS2_EEE17__annotate_shrinkB7v160006Em, symObjAddr: 0x3AAC, symBinAddr: 0x100006DE0, symSize: 0xD0 }
  - { offsetInCU: 0xE222, offset: 0xE222, size: 0x8, addend: 0x0, symName: __ZNKSt3__113basic_ostreamIcNS_11char_traitsIcEEE6sentrycvbB7v160006Ev, symObjAddr: 0x3D68, symBinAddr: 0x10000709C, symSize: 0x1C }
  - { offsetInCU: 0xE248, offset: 0xE248, size: 0x8, addend: 0x0, symName: __ZNSt3__119ostreambuf_iteratorIcNS_11char_traitsIcEEEC1B7v160006ERNS_13basic_ostreamIcS2_EE, symObjAddr: 0x3FC4, symBinAddr: 0x1000072F8, symSize: 0x34 }
  - { offsetInCU: 0xE280, offset: 0xE280, size: 0x8, addend: 0x0, symName: __ZNKSt3__18ios_base5flagsB7v160006Ev, symObjAddr: 0x3FF8, symBinAddr: 0x10000732C, symSize: 0x18 }
  - { offsetInCU: 0xE2A8, offset: 0xE2A8, size: 0x8, addend: 0x0, symName: __ZNKSt3__19basic_iosIcNS_11char_traitsIcEEE4fillB7v160006Ev, symObjAddr: 0x4010, symBinAddr: 0x100007344, symSize: 0x64 }
  - { offsetInCU: 0xE2D0, offset: 0xE2D0, size: 0x8, addend: 0x0, symName: __ZNKSt3__119ostreambuf_iteratorIcNS_11char_traitsIcEEE6failedB7v160006Ev, symObjAddr: 0x4074, symBinAddr: 0x1000073A8, symSize: 0x24 }
  - { offsetInCU: 0xE2F6, offset: 0xE2F6, size: 0x8, addend: 0x0, symName: __ZNKSt3__18ios_base5widthB7v160006Ev, symObjAddr: 0x4098, symBinAddr: 0x1000073CC, symSize: 0x18 }
  - { offsetInCU: 0xE31E, offset: 0xE31E, size: 0x8, addend: 0x0, symName: __ZNSt3__115basic_streambufIcNS_11char_traitsIcEEE5sputnB7v160006EPKcl, symObjAddr: 0x40B0, symBinAddr: 0x1000073E4, symSize: 0x3C }
  - { offsetInCU: 0xE360, offset: 0xE360, size: 0x8, addend: 0x0, symName: __ZNSt3__112basic_stringIcNS_11char_traitsIcEENS_9allocatorIcEEEC1B7v160006Emc, symObjAddr: 0x40EC, symBinAddr: 0x100007420, symSize: 0x3C }
  - { offsetInCU: 0xE3A8, offset: 0xE3A8, size: 0x8, addend: 0x0, symName: __ZNSt3__112basic_stringIcNS_11char_traitsIcEENS_9allocatorIcEEE4dataB7v160006Ev, symObjAddr: 0x4128, symBinAddr: 0x10000745C, symSize: 0x28 }
  - { offsetInCU: 0xE3CE, offset: 0xE3CE, size: 0x8, addend: 0x0, symName: __ZNSt3__18ios_base5widthB7v160006El, symObjAddr: 0x4150, symBinAddr: 0x100007484, symSize: 0x2C }
  - { offsetInCU: 0xE414, offset: 0xE414, size: 0x8, addend: 0x0, symName: __ZNSt3__112basic_stringIcNS_11char_traitsIcEENS_9allocatorIcEEEC2B7v160006Emc, symObjAddr: 0x417C, symBinAddr: 0x1000074B0, symSize: 0x54 }
  - { offsetInCU: 0xE45C, offset: 0xE45C, size: 0x8, addend: 0x0, symName: __ZNSt3__117__compressed_pairINS_12basic_stringIcNS_11char_traitsIcEENS_9allocatorIcEEE5__repES5_EC1B7v160006INS_18__default_init_tagESA_EEOT_OT0_, symObjAddr: 0x41D0, symBinAddr: 0x100007504, symSize: 0x3C }
  - { offsetInCU: 0xE4B4, offset: 0xE4B4, size: 0x8, addend: 0x0, symName: __ZNSt3__117__compressed_pairINS_12basic_stringIcNS_11char_traitsIcEENS_9allocatorIcEEE5__repES5_EC2B7v160006INS_18__default_init_tagESA_EEOT_OT0_, symObjAddr: 0x421C, symBinAddr: 0x100007550, symSize: 0x3C }
  - { offsetInCU: 0xE50C, offset: 0xE50C, size: 0x8, addend: 0x0, symName: __ZNSt3__122__compressed_pair_elemINS_12basic_stringIcNS_11char_traitsIcEENS_9allocatorIcEEE5__repELi0ELb0EEC2B7v160006ENS_18__default_init_tagE, symObjAddr: 0x4258, symBinAddr: 0x10000758C, symSize: 0x14 }
  - { offsetInCU: 0xE541, offset: 0xE541, size: 0x8, addend: 0x0, symName: __ZNSt3__122__compressed_pair_elemINS_9allocatorIcEELi1ELb1EEC2B7v160006ENS_18__default_init_tagE, symObjAddr: 0x426C, symBinAddr: 0x1000075A0, symSize: 0x2C }
  - { offsetInCU: 0xE576, offset: 0xE576, size: 0x8, addend: 0x0, symName: __ZNSt3__19allocatorIcEC2B7v160006Ev, symObjAddr: 0x4298, symBinAddr: 0x1000075CC, symSize: 0x2C }
  - { offsetInCU: 0xE5A0, offset: 0xE5A0, size: 0x8, addend: 0x0, symName: __ZNSt3__116__non_trivial_ifILb1ENS_9allocatorIcEEEC2B7v160006Ev, symObjAddr: 0x42C4, symBinAddr: 0x1000075F8, symSize: 0x14 }
  - { offsetInCU: 0xE5CA, offset: 0xE5CA, size: 0x8, addend: 0x0, symName: __ZNSt3__112basic_stringIcNS_11char_traitsIcEENS_9allocatorIcEEE13__get_pointerB7v160006Ev, symObjAddr: 0x42EC, symBinAddr: 0x100007620, symSize: 0x54 }
  - { offsetInCU: 0xE5F0, offset: 0xE5F0, size: 0x8, addend: 0x0, symName: __ZNKSt3__112basic_stringIcNS_11char_traitsIcEENS_9allocatorIcEEE9__is_longB7v160006Ev, symObjAddr: 0x4340, symBinAddr: 0x100007674, symSize: 0x38 }
  - { offsetInCU: 0xE616, offset: 0xE616, size: 0x8, addend: 0x0, symName: __ZNSt3__112basic_stringIcNS_11char_traitsIcEENS_9allocatorIcEEE18__get_long_pointerB7v160006Ev, symObjAddr: 0x4378, symBinAddr: 0x1000076AC, symSize: 0x28 }
  - { offsetInCU: 0xE63C, offset: 0xE63C, size: 0x8, addend: 0x0, symName: __ZNSt3__112basic_stringIcNS_11char_traitsIcEENS_9allocatorIcEEE19__get_short_pointerB7v160006Ev, symObjAddr: 0x43A0, symBinAddr: 0x1000076D4, symSize: 0x28 }
  - { offsetInCU: 0xE662, offset: 0xE662, size: 0x8, addend: 0x0, symName: __ZNKSt3__117__compressed_pairINS_12basic_stringIcNS_11char_traitsIcEENS_9allocatorIcEEE5__repES5_E5firstB7v160006Ev, symObjAddr: 0x43C8, symBinAddr: 0x1000076FC, symSize: 0x24 }
  - { offsetInCU: 0xE688, offset: 0xE688, size: 0x8, addend: 0x0, symName: __ZNKSt3__122__compressed_pair_elemINS_12basic_stringIcNS_11char_traitsIcEENS_9allocatorIcEEE5__repELi0ELb0EE5__getB7v160006Ev, symObjAddr: 0x43EC, symBinAddr: 0x100007720, symSize: 0x14 }
  - { offsetInCU: 0xE6AE, offset: 0xE6AE, size: 0x8, addend: 0x0, symName: __ZNSt3__117__compressed_pairINS_12basic_stringIcNS_11char_traitsIcEENS_9allocatorIcEEE5__repES5_E5firstB7v160006Ev, symObjAddr: 0x4400, symBinAddr: 0x100007734, symSize: 0x24 }
  - { offsetInCU: 0xE6D4, offset: 0xE6D4, size: 0x8, addend: 0x0, symName: __ZNSt3__122__compressed_pair_elemINS_12basic_stringIcNS_11char_traitsIcEENS_9allocatorIcEEE5__repELi0ELb0EE5__getB7v160006Ev, symObjAddr: 0x4424, symBinAddr: 0x100007758, symSize: 0x14 }
  - { offsetInCU: 0xE6FA, offset: 0xE6FA, size: 0x8, addend: 0x0, symName: __ZNSt3__114pointer_traitsIPcE10pointer_toB7v160006ERc, symObjAddr: 0x4438, symBinAddr: 0x10000776C, symSize: 0x14 }
  - { offsetInCU: 0xE71D, offset: 0xE71D, size: 0x8, addend: 0x0, symName: __ZNSt3__119ostreambuf_iteratorIcNS_11char_traitsIcEEEC2B7v160006ERNS_13basic_ostreamIcS2_EE, symObjAddr: 0x444C, symBinAddr: 0x100007780, symSize: 0x54 }
  - { offsetInCU: 0xE755, offset: 0xE755, size: 0x8, addend: 0x0, symName: __ZNKSt3__19basic_iosIcNS_11char_traitsIcEEE5widenB7v160006Ec, symObjAddr: 0x44A0, symBinAddr: 0x1000077D4, symSize: 0x84 }
  - { offsetInCU: 0xE7C3, offset: 0xE7C3, size: 0x8, addend: 0x0, symName: __ZNKSt3__15ctypeIcE5widenB7v160006Ec, symObjAddr: 0x4550, symBinAddr: 0x100007884, symSize: 0x38 }
...
