---
triple:          'arm64-apple-darwin'
binary-path:     "/Users/youjin/Documents/GitHub/BOJ/19622_회의실배정3/19622"
relocations:
  - { offsetInCU: 0x3F, offset: 0x3F, size: 0x8, addend: 0x0, symName: _list, symObjAddr: 0x26F70, symBinAddr: 0x100008000, symSize: 0x0 }
  - { offsetInCU: 0x4871, offset: 0x4871, size: 0x8, addend: 0x0, symName: __ZNSt3__124__put_character_sequenceB7v160006IcNS_11char_traitsIcEEEERNS_13basic_ostreamIT_T0_EES7_PKS4_m, symObjAddr: 0x231C, symBinAddr: 0x100002F8C, symSize: 0x1EC }
  - { offsetInCU: 0x63CD, offset: 0x63CD, size: 0x8, addend: 0x0, symName: __ZNSt3__13maxB7v160006IiEERKT_S3_S3_, symObjAddr: 0x4D8, symBinAddr: 0x100001148, symSize: 0x2C }
  - { offsetInCU: 0x6410, offset: 0x6410, size: 0x8, addend: 0x0, symName: __ZNSt3__1lsB7v160006INS_11char_traitsIcEEEERNS_13basic_ostreamIcT_EES6_c, symObjAddr: 0x504, symBinAddr: 0x100001174, symSize: 0x34 }
  - { offsetInCU: 0x6456, offset: 0x6456, size: 0x8, addend: 0x0, symName: __ZNSt3__13maxB7v160006IiNS_6__lessIiiEEEERKT_S5_S5_T0_, symObjAddr: 0x570, symBinAddr: 0x1000011E0, symSize: 0x54 }
  - { offsetInCU: 0x64EB, offset: 0x64EB, size: 0x8, addend: 0x0, symName: __ZNSt3__119__debug_db_insert_cB7v160006INS_6vectorI7MeetingNS_9allocatorIS2_EEEEEEvPT_, symObjAddr: 0x698, symBinAddr: 0x100001308, symSize: 0x10 }
  - { offsetInCU: 0x651C, offset: 0x651C, size: 0x8, addend: 0x0, symName: __ZNSt3__118__debug_db_erase_cB7v160006INS_6vectorI7MeetingNS_9allocatorIS2_EEEEEEvPT_, symObjAddr: 0x978, symBinAddr: 0x1000015E8, symSize: 0x10 }
  - { offsetInCU: 0x654D, offset: 0x654D, size: 0x8, addend: 0x0, symName: __ZNSt3__112__to_addressB7v160006I7MeetingEEPT_S3_, symObjAddr: 0xABC, symBinAddr: 0x10000172C, symSize: 0x14 }
  - { offsetInCU: 0x6582, offset: 0x6582, size: 0x8, addend: 0x0, symName: __ZNSt3__119__libcpp_deallocateB7v160006EPvmm, symObjAddr: 0xBE0, symBinAddr: 0x100001850, symSize: 0x30 }
  - { offsetInCU: 0x65CA, offset: 0x65CA, size: 0x8, addend: 0x0, symName: __ZNSt3__127__do_deallocate_handle_sizeB7v160006IJEEEvPvmDpT_, symObjAddr: 0xC10, symBinAddr: 0x100001880, symSize: 0x28 }
  - { offsetInCU: 0x6608, offset: 0x6608, size: 0x8, addend: 0x0, symName: __ZNSt3__124__libcpp_operator_deleteB7v160006IJPvEEEvDpT_, symObjAddr: 0xC38, symBinAddr: 0x1000018A8, symSize: 0x24 }
  - { offsetInCU: 0x663D, offset: 0x663D, size: 0x8, addend: 0x0, symName: __ZNSt3__13maxB7v160006ImEERKT_S3_S3_, symObjAddr: 0x12AC, symBinAddr: 0x100001F1C, symSize: 0x2C }
  - { offsetInCU: 0x6680, offset: 0x6680, size: 0x8, addend: 0x0, symName: __ZNSt3__13minB7v160006ImEERKT_S3_S3_, symObjAddr: 0x12D8, symBinAddr: 0x100001F48, symSize: 0x2C }
  - { offsetInCU: 0x68C4, offset: 0x68C4, size: 0x8, addend: 0x0, symName: __ZNSt3__13minB7v160006ImNS_6__lessImmEEEERKT_S5_S5_T0_, symObjAddr: 0x1364, symBinAddr: 0x100001FD4, symSize: 0x54 }
  - { offsetInCU: 0x6959, offset: 0x6959, size: 0x8, addend: 0x0, symName: __ZNSt3__120__throw_length_errorB7v160006EPKc, symObjAddr: 0x1444, symBinAddr: 0x1000020B4, symSize: 0x64 }
  - { offsetInCU: 0x6981, offset: 0x6981, size: 0x8, addend: 0x0, symName: __ZNSt3__13maxB7v160006ImNS_6__lessImmEEEERKT_S5_S5_T0_, symObjAddr: 0x1528, symBinAddr: 0x100002198, symSize: 0x54 }
  - { offsetInCU: 0x69DB, offset: 0x69DB, size: 0x8, addend: 0x0, symName: __ZNSt3__119__allocate_at_leastB7v160006INS_9allocatorI7MeetingEEEENS_19__allocation_resultINS_16allocator_traitsIT_E7pointerEEERS6_m, symObjAddr: 0x1698, symBinAddr: 0x100002308, symSize: 0x40 }
  - { offsetInCU: 0x6A1E, offset: 0x6A1E, size: 0x8, addend: 0x0, symName: __ZNSt3__117__libcpp_allocateB7v160006Emm, symObjAddr: 0x1820, symBinAddr: 0x100002490, symSize: 0x28 }
  - { offsetInCU: 0x6A5B, offset: 0x6A5B, size: 0x8, addend: 0x0, symName: __ZNSt3__121__libcpp_operator_newB7v160006IJmEEEPvDpT_, symObjAddr: 0x1848, symBinAddr: 0x1000024B8, symSize: 0x24 }
  - { offsetInCU: 0x6A94, offset: 0x6A94, size: 0x8, addend: 0x0, symName: __ZNSt3__142__uninitialized_allocator_move_if_noexceptB7v160006INS_9allocatorI7MeetingEENS_16reverse_iteratorIPS2_EES6_S2_vEET1_RT_T0_SA_S7_, symObjAddr: 0x18D0, symBinAddr: 0x100002540, symSize: 0x78 }
  - { offsetInCU: 0x6B11, offset: 0x6B11, size: 0x8, addend: 0x0, symName: __ZNSt3__14swapB7v160006IP7MeetingEENS_9enable_ifIXaasr21is_move_constructibleIT_EE5valuesr18is_move_assignableIS4_EE5valueEvE4typeERS4_S7_, symObjAddr: 0x1994, symBinAddr: 0x100002604, symSize: 0x3C }
  - { offsetInCU: 0x6B62, offset: 0x6B62, size: 0x8, addend: 0x0, symName: __ZNSt3__125__debug_db_invalidate_allB7v160006INS_6vectorI7MeetingNS_9allocatorIS2_EEEEEEvPT_, symObjAddr: 0x1A98, symBinAddr: 0x100002708, symSize: 0x10 }
  - { offsetInCU: 0x6B93, offset: 0x6B93, size: 0x8, addend: 0x0, symName: __ZNSt3__14moveB7v160006INS_16reverse_iteratorIP7MeetingEES4_EET0_T_S6_S5_, symObjAddr: 0x1AA8, symBinAddr: 0x100002718, symSize: 0x78 }
  - { offsetInCU: 0x6BED, offset: 0x6BED, size: 0x8, addend: 0x0, symName: __ZNSt3__16__moveB7v160006INS_17_ClassicAlgPolicyENS_16reverse_iteratorIP7MeetingEES5_S5_EENS_4pairIT0_T2_EES7_T1_S8_, symObjAddr: 0x1B20, symBinAddr: 0x100002790, symSize: 0x64 }
  - { offsetInCU: 0x6C59, offset: 0x6C59, size: 0x8, addend: 0x0, symName: __ZNSt3__123__dispatch_copy_or_moveB7v160006INS_17_ClassicAlgPolicyENS_11__move_loopIS1_EENS_14__move_trivialENS_16reverse_iteratorIP7MeetingEES8_S8_EENS_4pairIT2_T4_EESA_T3_SB_, symObjAddr: 0x1B84, symBinAddr: 0x1000027F4, symSize: 0x64 }
  - { offsetInCU: 0x6CD7, offset: 0x6CD7, size: 0x8, addend: 0x0, symName: __ZNSt3__121__unwrap_and_dispatchB7v160006INS_10__overloadINS_11__move_loopINS_17_ClassicAlgPolicyEEENS_14__move_trivialEEENS_16reverse_iteratorIP7MeetingEESA_SA_Li0EEENS_4pairIT0_T2_EESC_T1_SD_, symObjAddr: 0x1BE8, symBinAddr: 0x100002858, symSize: 0x12C }
  - { offsetInCU: 0x6D67, offset: 0x6D67, size: 0x8, addend: 0x0, symName: __ZNSt3__114__unwrap_rangeB7v160006INS_16reverse_iteratorIP7MeetingEES4_EENS_4pairIT0_S6_EET_S8_, symObjAddr: 0x1D14, symBinAddr: 0x100002984, symSize: 0x84 }
  - { offsetInCU: 0x6EE2, offset: 0x6EE2, size: 0x8, addend: 0x0, symName: __ZNSt3__113__unwrap_iterB7v160006INS_16reverse_iteratorIP7MeetingEENS_18__unwrap_iter_implIS4_Lb0EEELi0EEEDTclsrT0_8__unwrapclsr3stdE7declvalIT_EEEES8_, symObjAddr: 0x1E40, symBinAddr: 0x100002AB0, symSize: 0x44 }
  - { offsetInCU: 0x6F26, offset: 0x6F26, size: 0x8, addend: 0x0, symName: __ZNSt3__19make_pairB7v160006INS_16reverse_iteratorIP7MeetingEES4_EENS_4pairINS_18__unwrap_ref_decayIT_E4typeENS6_IT0_E4typeEEEOS7_OSA_, symObjAddr: 0x1E84, symBinAddr: 0x100002AF4, symSize: 0x38 }
  - { offsetInCU: 0x6F75, offset: 0x6F75, size: 0x8, addend: 0x0, symName: __ZNSt3__114__rewrap_rangeB7v160006INS_16reverse_iteratorIP7MeetingEES4_EET_S5_T0_, symObjAddr: 0x1EBC, symBinAddr: 0x100002B2C, symSize: 0x5C }
  - { offsetInCU: 0x6FC1, offset: 0x6FC1, size: 0x8, addend: 0x0, symName: __ZNSt3__113__rewrap_iterB7v160006INS_16reverse_iteratorIP7MeetingEES4_NS_18__unwrap_iter_implIS4_Lb0EEEEET_S7_T0_, symObjAddr: 0x1F18, symBinAddr: 0x100002B88, symSize: 0x74 }
  - { offsetInCU: 0x7016, offset: 0x7016, size: 0x8, addend: 0x0, symName: __ZNSt3__1neB7v160006IP7MeetingS2_EEbRKNS_16reverse_iteratorIT_EERKNS3_IT0_EE, symObjAddr: 0x1F8C, symBinAddr: 0x100002BFC, symSize: 0x48 }
  - { offsetInCU: 0x7114, offset: 0x7114, size: 0x8, addend: 0x0, symName: __ZNSt3__116__pad_and_outputB7v160006IcNS_11char_traitsIcEEEENS_19ostreambuf_iteratorIT_T0_EES6_PKS4_S8_S8_RNS_8ios_baseES4_, symObjAddr: 0x2524, symBinAddr: 0x100003194, symSize: 0x240 }
  - { offsetInCU: 0x71E3, offset: 0x71E3, size: 0x8, addend: 0x0, symName: __ZNSt3__119__debug_db_insert_cB7v160006INS_12basic_stringIcNS_11char_traitsIcEENS_9allocatorIcEEEEEEvPT_, symObjAddr: 0x29D8, symBinAddr: 0x100003648, symSize: 0x10 }
  - { offsetInCU: 0x7214, offset: 0x7214, size: 0x8, addend: 0x0, symName: __ZNSt3__112__to_addressB7v160006IKcEEPT_S3_, symObjAddr: 0x2AA4, symBinAddr: 0x100003714, symSize: 0x14 }
  - { offsetInCU: 0x727C, offset: 0x727C, size: 0x8, addend: 0x0, symName: __ZNSt3__19use_facetB7v160006INS_5ctypeIcEEEERKT_RKNS_6localeE, symObjAddr: 0x2D24, symBinAddr: 0x100003994, symSize: 0x2C }
  - { offsetInCU: 0x79E0, offset: 0x79E0, size: 0x8, addend: 0x0, symName: __ZSt28__throw_bad_array_new_lengthB7v160006v, symObjAddr: 0x17EC, symBinAddr: 0x10000245C, symSize: 0x34 }
  - { offsetInCU: 0x7C11, offset: 0x7C11, size: 0x8, addend: 0x0, symName: _ret, symObjAddr: 0x26F88, symBinAddr: 0x100008018, symSize: 0x0 }
  - { offsetInCU: 0x7F03, offset: 0x7F03, size: 0x8, addend: 0x0, symName: __ZNSt3__16vectorI7MeetingNS_9allocatorIS1_EEE26__swap_out_circular_bufferERNS_14__split_bufferIS1_RS3_EE, symObjAddr: 0x10EC, symBinAddr: 0x100001D5C, symSize: 0x118 }
  - { offsetInCU: 0xA19C, offset: 0xA19C, size: 0x8, addend: 0x0, symName: __ZNSt3__16vectorI7MeetingNS_9allocatorIS1_EEEC1B7v160006Ev, symObjAddr: 0x0, symBinAddr: 0x100000C70, symSize: 0x2C }
  - { offsetInCU: 0xA1C5, offset: 0xA1C5, size: 0x8, addend: 0x0, symName: __ZNSt3__16vectorI7MeetingNS_9allocatorIS1_EEED1B7v160006Ev, symObjAddr: 0x2C, symBinAddr: 0x100000C9C, symSize: 0x2C }
  - { offsetInCU: 0xA1EE, offset: 0xA1EE, size: 0x8, addend: 0x0, symName: _main, symObjAddr: 0x58, symBinAddr: 0x100000CC8, symSize: 0x378 }
  - { offsetInCU: 0xA2A6, offset: 0xA2A6, size: 0x8, addend: 0x0, symName: __ZNSt3__19basic_iosIcNS_11char_traitsIcEEE3tieB7v160006EPNS_13basic_ostreamIcS2_EE, symObjAddr: 0x3D0, symBinAddr: 0x100001040, symSize: 0x2C }
  - { offsetInCU: 0xA2EB, offset: 0xA2EB, size: 0x8, addend: 0x0, symName: __ZN7MeetingC1Eiii, symObjAddr: 0x3FC, symBinAddr: 0x10000106C, symSize: 0x44 }
  - { offsetInCU: 0xA33D, offset: 0xA33D, size: 0x8, addend: 0x0, symName: __ZNSt3__16vectorI7MeetingNS_9allocatorIS1_EEE9push_backB7v160006ERKS1_, symObjAddr: 0x440, symBinAddr: 0x1000010B0, symSize: 0x6C }
  - { offsetInCU: 0xA373, offset: 0xA373, size: 0x8, addend: 0x0, symName: __ZNSt3__16vectorI7MeetingNS_9allocatorIS1_EEEixB7v160006Em, symObjAddr: 0x4AC, symBinAddr: 0x10000111C, symSize: 0x2C }
  - { offsetInCU: 0xA3A9, offset: 0xA3A9, size: 0x8, addend: 0x0, symName: __ZN7MeetingC2Eiii, symObjAddr: 0x538, symBinAddr: 0x1000011A8, symSize: 0x38 }
  - { offsetInCU: 0xA40B, offset: 0xA40B, size: 0x8, addend: 0x0, symName: __ZNKSt3__16__lessIiiEclB7v160006ERKiS3_, symObjAddr: 0x5C4, symBinAddr: 0x100001234, symSize: 0x34 }
  - { offsetInCU: 0xA44C, offset: 0xA44C, size: 0x8, addend: 0x0, symName: __ZNSt3__16vectorI7MeetingNS_9allocatorIS1_EEEC2B7v160006Ev, symObjAddr: 0x5F8, symBinAddr: 0x100001268, symSize: 0x58 }
  - { offsetInCU: 0xA47F, offset: 0xA47F, size: 0x8, addend: 0x0, symName: __ZNSt3__117__compressed_pairIP7MeetingNS_9allocatorIS1_EEEC1B7v160006IDnNS_18__default_init_tagEEEOT_OT0_, symObjAddr: 0x650, symBinAddr: 0x1000012C0, symSize: 0x3C }
  - { offsetInCU: 0xA4D6, offset: 0xA4D6, size: 0x8, addend: 0x0, symName: __ZNSt3__117__compressed_pairIP7MeetingNS_9allocatorIS1_EEEC2B7v160006IDnNS_18__default_init_tagEEEOT_OT0_, symObjAddr: 0x6A8, symBinAddr: 0x100001318, symSize: 0x40 }
  - { offsetInCU: 0xA52D, offset: 0xA52D, size: 0x8, addend: 0x0, symName: __ZNSt3__122__compressed_pair_elemIP7MeetingLi0ELb0EEC2B7v160006IDnvEEOT_, symObjAddr: 0x6E8, symBinAddr: 0x100001358, symSize: 0x1C }
  - { offsetInCU: 0xA56E, offset: 0xA56E, size: 0x8, addend: 0x0, symName: __ZNSt3__122__compressed_pair_elemINS_9allocatorI7MeetingEELi1ELb1EEC2B7v160006ENS_18__default_init_tagE, symObjAddr: 0x704, symBinAddr: 0x100001374, symSize: 0x2C }
  - { offsetInCU: 0xA5A2, offset: 0xA5A2, size: 0x8, addend: 0x0, symName: __ZNSt3__19allocatorI7MeetingEC2B7v160006Ev, symObjAddr: 0x730, symBinAddr: 0x1000013A0, symSize: 0x2C }
  - { offsetInCU: 0xA5CB, offset: 0xA5CB, size: 0x8, addend: 0x0, symName: __ZNSt3__116__non_trivial_ifILb1ENS_9allocatorI7MeetingEEEC2B7v160006Ev, symObjAddr: 0x75C, symBinAddr: 0x1000013CC, symSize: 0x14 }
  - { offsetInCU: 0xA5F4, offset: 0xA5F4, size: 0x8, addend: 0x0, symName: __ZNSt3__16vectorI7MeetingNS_9allocatorIS1_EEED2B7v160006Ev, symObjAddr: 0x770, symBinAddr: 0x1000013E0, symSize: 0x44 }
  - { offsetInCU: 0xA61D, offset: 0xA61D, size: 0x8, addend: 0x0, symName: __ZNSt3__16vectorI7MeetingNS_9allocatorIS1_EEE16__destroy_vectorC1ERS4_, symObjAddr: 0x7B4, symBinAddr: 0x100001424, symSize: 0x34 }
  - { offsetInCU: 0xA655, offset: 0xA655, size: 0x8, addend: 0x0, symName: __ZNSt3__16vectorI7MeetingNS_9allocatorIS1_EEE16__destroy_vectorclB7v160006Ev, symObjAddr: 0x7E8, symBinAddr: 0x100001458, symSize: 0x9C }
  - { offsetInCU: 0xA67A, offset: 0xA67A, size: 0x8, addend: 0x0, symName: __ZNSt3__16vectorI7MeetingNS_9allocatorIS1_EEE16__destroy_vectorC2ERS4_, symObjAddr: 0x884, symBinAddr: 0x1000014F4, symSize: 0x20 }
  - { offsetInCU: 0xA6B2, offset: 0xA6B2, size: 0x8, addend: 0x0, symName: __ZNKSt3__16vectorI7MeetingNS_9allocatorIS1_EEE17__annotate_deleteB7v160006Ev, symObjAddr: 0x8A4, symBinAddr: 0x100001514, symSize: 0xD4 }
  - { offsetInCU: 0xA6D7, offset: 0xA6D7, size: 0x8, addend: 0x0, symName: __ZNSt3__16vectorI7MeetingNS_9allocatorIS1_EEE7__clearB7v160006Ev, symObjAddr: 0x988, symBinAddr: 0x1000015F8, symSize: 0x28 }
  - { offsetInCU: 0xA6FC, offset: 0xA6FC, size: 0x8, addend: 0x0, symName: __ZNSt3__116allocator_traitsINS_9allocatorI7MeetingEEE10deallocateB7v160006ERS3_PS2_m, symObjAddr: 0x9B0, symBinAddr: 0x100001620, symSize: 0x34 }
  - { offsetInCU: 0xA73E, offset: 0xA73E, size: 0x8, addend: 0x0, symName: __ZNSt3__16vectorI7MeetingNS_9allocatorIS1_EEE7__allocB7v160006Ev, symObjAddr: 0x9E4, symBinAddr: 0x100001654, symSize: 0x28 }
  - { offsetInCU: 0xA763, offset: 0xA763, size: 0x8, addend: 0x0, symName: __ZNKSt3__16vectorI7MeetingNS_9allocatorIS1_EEE8capacityB7v160006Ev, symObjAddr: 0xA0C, symBinAddr: 0x10000167C, symSize: 0x40 }
  - { offsetInCU: 0xA788, offset: 0xA788, size: 0x8, addend: 0x0, symName: __ZNKSt3__16vectorI7MeetingNS_9allocatorIS1_EEE31__annotate_contiguous_containerB7v160006EPKvS6_S6_S6_, symObjAddr: 0xA4C, symBinAddr: 0x1000016BC, symSize: 0x20 }
  - { offsetInCU: 0xA7D9, offset: 0xA7D9, size: 0x8, addend: 0x0, symName: __ZNKSt3__16vectorI7MeetingNS_9allocatorIS1_EEE4dataB7v160006Ev, symObjAddr: 0xA6C, symBinAddr: 0x1000016DC, symSize: 0x28 }
  - { offsetInCU: 0xA7FE, offset: 0xA7FE, size: 0x8, addend: 0x0, symName: __ZNKSt3__16vectorI7MeetingNS_9allocatorIS1_EEE4sizeB7v160006Ev, symObjAddr: 0xA94, symBinAddr: 0x100001704, symSize: 0x28 }
  - { offsetInCU: 0xA823, offset: 0xA823, size: 0x8, addend: 0x0, symName: __ZNSt3__16vectorI7MeetingNS_9allocatorIS1_EEE22__base_destruct_at_endB7v160006EPS1_, symObjAddr: 0xAD0, symBinAddr: 0x100001740, symSize: 0x8C }
  - { offsetInCU: 0xA866, offset: 0xA866, size: 0x8, addend: 0x0, symName: __ZNSt3__116allocator_traitsINS_9allocatorI7MeetingEEE7destroyB7v160006IS2_vEEvRS3_PT_, symObjAddr: 0xB5C, symBinAddr: 0x1000017CC, symSize: 0x2C }
  - { offsetInCU: 0xA8A3, offset: 0xA8A3, size: 0x8, addend: 0x0, symName: __ZNSt3__19allocatorI7MeetingE7destroyB7v160006EPS1_, symObjAddr: 0xB88, symBinAddr: 0x1000017F8, symSize: 0x14 }
  - { offsetInCU: 0xA8D6, offset: 0xA8D6, size: 0x8, addend: 0x0, symName: __ZNSt3__19allocatorI7MeetingE10deallocateB7v160006EPS1_m, symObjAddr: 0xB9C, symBinAddr: 0x10000180C, symSize: 0x44 }
  - { offsetInCU: 0xA917, offset: 0xA917, size: 0x8, addend: 0x0, symName: __ZNSt3__117__compressed_pairIP7MeetingNS_9allocatorIS1_EEE6secondB7v160006Ev, symObjAddr: 0xC5C, symBinAddr: 0x1000018CC, symSize: 0x24 }
  - { offsetInCU: 0xA93C, offset: 0xA93C, size: 0x8, addend: 0x0, symName: __ZNSt3__122__compressed_pair_elemINS_9allocatorI7MeetingEELi1ELb1EE5__getB7v160006Ev, symObjAddr: 0xC80, symBinAddr: 0x1000018F0, symSize: 0x14 }
  - { offsetInCU: 0xA961, offset: 0xA961, size: 0x8, addend: 0x0, symName: __ZNKSt3__16vectorI7MeetingNS_9allocatorIS1_EEE9__end_capB7v160006Ev, symObjAddr: 0xC94, symBinAddr: 0x100001904, symSize: 0x28 }
  - { offsetInCU: 0xA986, offset: 0xA986, size: 0x8, addend: 0x0, symName: __ZNKSt3__117__compressed_pairIP7MeetingNS_9allocatorIS1_EEE5firstB7v160006Ev, symObjAddr: 0xCBC, symBinAddr: 0x10000192C, symSize: 0x24 }
  - { offsetInCU: 0xA9AB, offset: 0xA9AB, size: 0x8, addend: 0x0, symName: __ZNKSt3__122__compressed_pair_elemIP7MeetingLi0ELb0EE5__getB7v160006Ev, symObjAddr: 0xCE0, symBinAddr: 0x100001950, symSize: 0x14 }
  - { offsetInCU: 0xA9D0, offset: 0xA9D0, size: 0x8, addend: 0x0, symName: __ZNSt3__16vectorI7MeetingNS_9allocatorIS1_EEE9__end_capB7v160006Ev, symObjAddr: 0xCF4, symBinAddr: 0x100001964, symSize: 0x28 }
  - { offsetInCU: 0xA9F5, offset: 0xA9F5, size: 0x8, addend: 0x0, symName: __ZNSt3__16vectorI7MeetingNS_9allocatorIS1_EEE22__construct_one_at_endB7v160006IJRKS1_EEEvDpOT_, symObjAddr: 0xD1C, symBinAddr: 0x10000198C, symSize: 0x90 }
  - { offsetInCU: 0xAA42, offset: 0xAA42, size: 0x8, addend: 0x0, symName: __ZNSt3__16vectorI7MeetingNS_9allocatorIS1_EEE21__push_back_slow_pathIRKS1_EEvOT_, symObjAddr: 0xDAC, symBinAddr: 0x100001A1C, symSize: 0xD8 }
  - { offsetInCU: 0xAA9F, offset: 0xAA9F, size: 0x8, addend: 0x0, symName: __ZNSt3__117__compressed_pairIP7MeetingNS_9allocatorIS1_EEE5firstB7v160006Ev, symObjAddr: 0xE84, symBinAddr: 0x100001AF4, symSize: 0x24 }
  - { offsetInCU: 0xAAC4, offset: 0xAAC4, size: 0x8, addend: 0x0, symName: __ZNSt3__122__compressed_pair_elemIP7MeetingLi0ELb0EE5__getB7v160006Ev, symObjAddr: 0xEA8, symBinAddr: 0x100001B18, symSize: 0x14 }
  - { offsetInCU: 0xAB02, offset: 0xAB02, size: 0x8, addend: 0x0, symName: __ZNSt3__16vectorI7MeetingNS_9allocatorIS1_EEE21_ConstructTransactionC1B7v160006ERS4_m, symObjAddr: 0xEBC, symBinAddr: 0x100001B2C, symSize: 0x3C }
  - { offsetInCU: 0xAB49, offset: 0xAB49, size: 0x8, addend: 0x0, symName: __ZNSt3__116allocator_traitsINS_9allocatorI7MeetingEEE9constructB7v160006IS2_JRKS2_EvEEvRS3_PT_DpOT0_, symObjAddr: 0xEF8, symBinAddr: 0x100001B68, symSize: 0x34 }
  - { offsetInCU: 0xABA0, offset: 0xABA0, size: 0x8, addend: 0x0, symName: __ZNSt3__16vectorI7MeetingNS_9allocatorIS1_EEE21_ConstructTransactionD1B7v160006Ev, symObjAddr: 0xF2C, symBinAddr: 0x100001B9C, symSize: 0x2C }
  - { offsetInCU: 0xABC9, offset: 0xABC9, size: 0x8, addend: 0x0, symName: __ZNSt3__16vectorI7MeetingNS_9allocatorIS1_EEE21_ConstructTransactionC2B7v160006ERS4_m, symObjAddr: 0xF58, symBinAddr: 0x100001BC8, symSize: 0x4C }
  - { offsetInCU: 0xAC10, offset: 0xAC10, size: 0x8, addend: 0x0, symName: __ZNSt3__19allocatorI7MeetingE9constructB7v160006IS1_JRKS1_EEEvPT_DpOT0_, symObjAddr: 0xFA4, symBinAddr: 0x100001C14, symSize: 0x30 }
  - { offsetInCU: 0xAC65, offset: 0xAC65, size: 0x8, addend: 0x0, symName: __ZNSt3__16vectorI7MeetingNS_9allocatorIS1_EEE21_ConstructTransactionD2B7v160006Ev, symObjAddr: 0xFD4, symBinAddr: 0x100001C44, symSize: 0x20 }
  - { offsetInCU: 0xAC8D, offset: 0xAC8D, size: 0x8, addend: 0x0, symName: __ZNKSt3__16vectorI7MeetingNS_9allocatorIS1_EEE11__recommendB7v160006Em, symObjAddr: 0xFF4, symBinAddr: 0x100001C64, symSize: 0xB4 }
  - { offsetInCU: 0xACE1, offset: 0xACE1, size: 0x8, addend: 0x0, symName: __ZNSt3__114__split_bufferI7MeetingRNS_9allocatorIS1_EEEC1EmmS4_, symObjAddr: 0x10A8, symBinAddr: 0x100001D18, symSize: 0x44 }
  - { offsetInCU: 0xAD36, offset: 0xAD36, size: 0x8, addend: 0x0, symName: __ZNSt3__114__split_bufferI7MeetingRNS_9allocatorIS1_EEED1Ev, symObjAddr: 0x1204, symBinAddr: 0x100001E74, symSize: 0x2C }
  - { offsetInCU: 0xAD60, offset: 0xAD60, size: 0x8, addend: 0x0, symName: __ZNKSt3__16vectorI7MeetingNS_9allocatorIS1_EEE8max_sizeEv, symObjAddr: 0x1230, symBinAddr: 0x100001EA0, symSize: 0x60 }
  - { offsetInCU: 0xAD87, offset: 0xAD87, size: 0x8, addend: 0x0, symName: __ZNKSt3__16vectorI7MeetingNS_9allocatorIS1_EEE20__throw_length_errorB7v160006Ev, symObjAddr: 0x1290, symBinAddr: 0x100001F00, symSize: 0x1C }
  - { offsetInCU: 0xADB6, offset: 0xADB6, size: 0x8, addend: 0x0, symName: __ZNSt3__116allocator_traitsINS_9allocatorI7MeetingEEE8max_sizeB7v160006IS3_vEEmRKS3_, symObjAddr: 0x1304, symBinAddr: 0x100001F74, symSize: 0x24 }
  - { offsetInCU: 0xADE4, offset: 0xADE4, size: 0x8, addend: 0x0, symName: __ZNKSt3__16vectorI7MeetingNS_9allocatorIS1_EEE7__allocB7v160006Ev, symObjAddr: 0x1328, symBinAddr: 0x100001F98, symSize: 0x28 }
  - { offsetInCU: 0xAE09, offset: 0xAE09, size: 0x8, addend: 0x0, symName: __ZNSt3__114numeric_limitsIlE3maxB7v160006Ev, symObjAddr: 0x1350, symBinAddr: 0x100001FC0, symSize: 0x14 }
  - { offsetInCU: 0xAE31, offset: 0xAE31, size: 0x8, addend: 0x0, symName: __ZNKSt3__16__lessImmEclB7v160006ERKmS3_, symObjAddr: 0x13B8, symBinAddr: 0x100002028, symSize: 0x34 }
  - { offsetInCU: 0xAE72, offset: 0xAE72, size: 0x8, addend: 0x0, symName: __ZNKSt3__19allocatorI7MeetingE8max_sizeB7v160006Ev, symObjAddr: 0x13EC, symBinAddr: 0x10000205C, symSize: 0x18 }
  - { offsetInCU: 0xAE97, offset: 0xAE97, size: 0x8, addend: 0x0, symName: __ZNKSt3__117__compressed_pairIP7MeetingNS_9allocatorIS1_EEE6secondB7v160006Ev, symObjAddr: 0x1404, symBinAddr: 0x100002074, symSize: 0x24 }
  - { offsetInCU: 0xAEBC, offset: 0xAEBC, size: 0x8, addend: 0x0, symName: __ZNKSt3__122__compressed_pair_elemINS_9allocatorI7MeetingEELi1ELb1EE5__getB7v160006Ev, symObjAddr: 0x1428, symBinAddr: 0x100002098, symSize: 0x14 }
  - { offsetInCU: 0xAEE1, offset: 0xAEE1, size: 0x8, addend: 0x0, symName: __ZNSt3__123__libcpp_numeric_limitsIlLb1EE3maxB7v160006Ev, symObjAddr: 0x143C, symBinAddr: 0x1000020AC, symSize: 0x8 }
  - { offsetInCU: 0xAEF5, offset: 0xAEF5, size: 0x8, addend: 0x0, symName: __ZNSt12length_errorC1B7v160006EPKc, symObjAddr: 0x14A8, symBinAddr: 0x100002118, symSize: 0x34 }
  - { offsetInCU: 0xAF2C, offset: 0xAF2C, size: 0x8, addend: 0x0, symName: __ZNSt12length_errorC2B7v160006EPKc, symObjAddr: 0x14DC, symBinAddr: 0x10000214C, symSize: 0x4C }
  - { offsetInCU: 0xAF63, offset: 0xAF63, size: 0x8, addend: 0x0, symName: __ZNSt3__114__split_bufferI7MeetingRNS_9allocatorIS1_EEEC2EmmS4_, symObjAddr: 0x157C, symBinAddr: 0x1000021EC, symSize: 0xE0 }
  - { offsetInCU: 0xAFD6, offset: 0xAFD6, size: 0x8, addend: 0x0, symName: __ZNSt3__117__compressed_pairIP7MeetingRNS_9allocatorIS1_EEEC1B7v160006IDnS5_EEOT_OT0_, symObjAddr: 0x165C, symBinAddr: 0x1000022CC, symSize: 0x3C }
  - { offsetInCU: 0xB02D, offset: 0xB02D, size: 0x8, addend: 0x0, symName: __ZNSt3__114__split_bufferI7MeetingRNS_9allocatorIS1_EEE7__allocB7v160006Ev, symObjAddr: 0x16D8, symBinAddr: 0x100002348, symSize: 0x28 }
  - { offsetInCU: 0xB052, offset: 0xB052, size: 0x8, addend: 0x0, symName: __ZNSt3__114__split_bufferI7MeetingRNS_9allocatorIS1_EEE9__end_capB7v160006Ev, symObjAddr: 0x1700, symBinAddr: 0x100002370, symSize: 0x28 }
  - { offsetInCU: 0xB077, offset: 0xB077, size: 0x8, addend: 0x0, symName: __ZNSt3__117__compressed_pairIP7MeetingRNS_9allocatorIS1_EEEC2B7v160006IDnS5_EEOT_OT0_, symObjAddr: 0x1728, symBinAddr: 0x100002398, symSize: 0x48 }
  - { offsetInCU: 0xB0CE, offset: 0xB0CE, size: 0x8, addend: 0x0, symName: __ZNSt3__122__compressed_pair_elemIRNS_9allocatorI7MeetingEELi1ELb0EEC2B7v160006IS4_vEEOT_, symObjAddr: 0x1770, symBinAddr: 0x1000023E0, symSize: 0x20 }
  - { offsetInCU: 0xB10F, offset: 0xB10F, size: 0x8, addend: 0x0, symName: __ZNSt3__19allocatorI7MeetingE8allocateB7v160006Em, symObjAddr: 0x1790, symBinAddr: 0x100002400, symSize: 0x5C }
  - { offsetInCU: 0xB142, offset: 0xB142, size: 0x8, addend: 0x0, symName: __ZNSt3__117__compressed_pairIP7MeetingRNS_9allocatorIS1_EEE6secondB7v160006Ev, symObjAddr: 0x186C, symBinAddr: 0x1000024DC, symSize: 0x28 }
  - { offsetInCU: 0xB167, offset: 0xB167, size: 0x8, addend: 0x0, symName: __ZNSt3__122__compressed_pair_elemIRNS_9allocatorI7MeetingEELi1ELb0EE5__getB7v160006Ev, symObjAddr: 0x1894, symBinAddr: 0x100002504, symSize: 0x18 }
  - { offsetInCU: 0xB18C, offset: 0xB18C, size: 0x8, addend: 0x0, symName: __ZNSt3__117__compressed_pairIP7MeetingRNS_9allocatorIS1_EEE5firstB7v160006Ev, symObjAddr: 0x18AC, symBinAddr: 0x10000251C, symSize: 0x24 }
  - { offsetInCU: 0xB1B1, offset: 0xB1B1, size: 0x8, addend: 0x0, symName: __ZNSt3__116reverse_iteratorIP7MeetingEC1B7v160006ES2_, symObjAddr: 0x1948, symBinAddr: 0x1000025B8, symSize: 0x34 }
  - { offsetInCU: 0xB1E8, offset: 0xB1E8, size: 0x8, addend: 0x0, symName: __ZNKSt3__116reverse_iteratorIP7MeetingE4baseB7v160006Ev, symObjAddr: 0x197C, symBinAddr: 0x1000025EC, symSize: 0x18 }
  - { offsetInCU: 0xB20D, offset: 0xB20D, size: 0x8, addend: 0x0, symName: __ZNKSt3__16vectorI7MeetingNS_9allocatorIS1_EEE14__annotate_newB7v160006Em, symObjAddr: 0x19D0, symBinAddr: 0x100002640, symSize: 0xC8 }
  - { offsetInCU: 0xB264, offset: 0xB264, size: 0x8, addend: 0x0, symName: __ZNKSt3__111__move_loopINS_17_ClassicAlgPolicyEEclB7v160006INS_16reverse_iteratorIP7MeetingEES7_S7_EENS_4pairIT_T1_EES9_T0_SA_, symObjAddr: 0x1D98, symBinAddr: 0x100002A08, symSize: 0xA8 }
  - { offsetInCU: 0xB2D3, offset: 0xB2D3, size: 0x8, addend: 0x0, symName: __ZNSt3__18_IterOpsINS_17_ClassicAlgPolicyEE11__iter_moveB7v160006IRNS_16reverse_iteratorIP7MeetingEEEENS_9enable_ifIXsr12is_referenceIDTdeclsr3stdE7declvalIRT_EEEEE5valueEDTclsr3stdE4movedeclsr3stdE7declvalISB_EEEEE4typeEOSA_, symObjAddr: 0x1FD4, symBinAddr: 0x100002C44, symSize: 0x28 }
  - { offsetInCU: 0xB2FF, offset: 0xB2FF, size: 0x8, addend: 0x0, symName: __ZNKSt3__116reverse_iteratorIP7MeetingEdeB7v160006Ev, symObjAddr: 0x1FFC, symBinAddr: 0x100002C6C, symSize: 0x28 }
  - { offsetInCU: 0xB332, offset: 0xB332, size: 0x8, addend: 0x0, symName: __ZNSt3__116reverse_iteratorIP7MeetingEppB7v160006Ev, symObjAddr: 0x2024, symBinAddr: 0x100002C94, symSize: 0x20 }
  - { offsetInCU: 0xB357, offset: 0xB357, size: 0x8, addend: 0x0, symName: __ZNSt3__18_IterOpsINS_17_ClassicAlgPolicyEE25__validate_iter_referenceB7v160006IRNS_16reverse_iteratorIP7MeetingEEEEvv, symObjAddr: 0x2044, symBinAddr: 0x100002CB4, symSize: 0x4 }
  - { offsetInCU: 0xB375, offset: 0xB375, size: 0x8, addend: 0x0, symName: __ZNSt3__118__unwrap_iter_implINS_16reverse_iteratorIP7MeetingEELb0EE8__unwrapB7v160006ES4_, symObjAddr: 0x2048, symBinAddr: 0x100002CB8, symSize: 0x24 }
  - { offsetInCU: 0xB39D, offset: 0xB39D, size: 0x8, addend: 0x0, symName: __ZNSt3__14pairINS_16reverse_iteratorIP7MeetingEES4_EC1B7v160006IS4_S4_LPv0EEEOT_OT0_, symObjAddr: 0x206C, symBinAddr: 0x100002CDC, symSize: 0x3C }
  - { offsetInCU: 0xB3FA, offset: 0xB3FA, size: 0x8, addend: 0x0, symName: __ZNSt3__14pairINS_16reverse_iteratorIP7MeetingEES4_EC2B7v160006IS4_S4_LPv0EEEOT_OT0_, symObjAddr: 0x20A8, symBinAddr: 0x100002D18, symSize: 0x34 }
  - { offsetInCU: 0xB457, offset: 0xB457, size: 0x8, addend: 0x0, symName: __ZNSt3__118__unwrap_iter_implINS_16reverse_iteratorIP7MeetingEELb0EE8__rewrapB7v160006ES4_S4_, symObjAddr: 0x20DC, symBinAddr: 0x100002D4C, symSize: 0x2C }
  - { offsetInCU: 0xB485, offset: 0xB485, size: 0x8, addend: 0x0, symName: __ZNSt3__116reverse_iteratorIP7MeetingEC2B7v160006ES2_, symObjAddr: 0x2108, symBinAddr: 0x100002D78, symSize: 0x28 }
  - { offsetInCU: 0xB4BC, offset: 0xB4BC, size: 0x8, addend: 0x0, symName: __ZNSt3__114__split_bufferI7MeetingRNS_9allocatorIS1_EEED2Ev, symObjAddr: 0x2130, symBinAddr: 0x100002DA0, symSize: 0x8C }
  - { offsetInCU: 0xB4E7, offset: 0xB4E7, size: 0x8, addend: 0x0, symName: __ZNSt3__114__split_bufferI7MeetingRNS_9allocatorIS1_EEE5clearB7v160006Ev, symObjAddr: 0x21BC, symBinAddr: 0x100002E2C, symSize: 0x28 }
  - { offsetInCU: 0xB50C, offset: 0xB50C, size: 0x8, addend: 0x0, symName: __ZNKSt3__114__split_bufferI7MeetingRNS_9allocatorIS1_EEE8capacityB7v160006Ev, symObjAddr: 0x21E4, symBinAddr: 0x100002E54, symSize: 0x40 }
  - { offsetInCU: 0xB531, offset: 0xB531, size: 0x8, addend: 0x0, symName: __ZNSt3__114__split_bufferI7MeetingRNS_9allocatorIS1_EEE17__destruct_at_endB7v160006EPS1_, symObjAddr: 0x2224, symBinAddr: 0x100002E94, symSize: 0x2C }
  - { offsetInCU: 0xB563, offset: 0xB563, size: 0x8, addend: 0x0, symName: __ZNSt3__114__split_bufferI7MeetingRNS_9allocatorIS1_EEE17__destruct_at_endB7v160006EPS1_NS_17integral_constantIbLb0EEE, symObjAddr: 0x2250, symBinAddr: 0x100002EC0, symSize: 0x80 }
  - { offsetInCU: 0xB5A3, offset: 0xB5A3, size: 0x8, addend: 0x0, symName: __ZNKSt3__114__split_bufferI7MeetingRNS_9allocatorIS1_EEE9__end_capB7v160006Ev, symObjAddr: 0x22D0, symBinAddr: 0x100002F40, symSize: 0x28 }
  - { offsetInCU: 0xB5C8, offset: 0xB5C8, size: 0x8, addend: 0x0, symName: __ZNKSt3__117__compressed_pairIP7MeetingRNS_9allocatorIS1_EEE5firstB7v160006Ev, symObjAddr: 0x22F8, symBinAddr: 0x100002F68, symSize: 0x24 }
  - { offsetInCU: 0xB60B, offset: 0xB60B, size: 0x8, addend: 0x0, symName: __ZNKSt3__113basic_ostreamIcNS_11char_traitsIcEEE6sentrycvbB7v160006Ev, symObjAddr: 0x2508, symBinAddr: 0x100003178, symSize: 0x1C }
  - { offsetInCU: 0xB630, offset: 0xB630, size: 0x8, addend: 0x0, symName: __ZNSt3__119ostreambuf_iteratorIcNS_11char_traitsIcEEEC1B7v160006ERNS_13basic_ostreamIcS2_EE, symObjAddr: 0x2764, symBinAddr: 0x1000033D4, symSize: 0x34 }
  - { offsetInCU: 0xB667, offset: 0xB667, size: 0x8, addend: 0x0, symName: __ZNKSt3__18ios_base5flagsB7v160006Ev, symObjAddr: 0x2798, symBinAddr: 0x100003408, symSize: 0x18 }
  - { offsetInCU: 0xB68D, offset: 0xB68D, size: 0x8, addend: 0x0, symName: __ZNKSt3__19basic_iosIcNS_11char_traitsIcEEE4fillB7v160006Ev, symObjAddr: 0x27B0, symBinAddr: 0x100003420, symSize: 0x64 }
  - { offsetInCU: 0xB6B4, offset: 0xB6B4, size: 0x8, addend: 0x0, symName: __ZNKSt3__119ostreambuf_iteratorIcNS_11char_traitsIcEEE6failedB7v160006Ev, symObjAddr: 0x2814, symBinAddr: 0x100003484, symSize: 0x24 }
  - { offsetInCU: 0xB6D9, offset: 0xB6D9, size: 0x8, addend: 0x0, symName: __ZNSt3__19basic_iosIcNS_11char_traitsIcEEE8setstateB7v160006Ej, symObjAddr: 0x2838, symBinAddr: 0x1000034A8, symSize: 0x2C }
  - { offsetInCU: 0xB70D, offset: 0xB70D, size: 0x8, addend: 0x0, symName: __ZNKSt3__18ios_base5widthB7v160006Ev, symObjAddr: 0x2864, symBinAddr: 0x1000034D4, symSize: 0x18 }
  - { offsetInCU: 0xB734, offset: 0xB734, size: 0x8, addend: 0x0, symName: __ZNSt3__115basic_streambufIcNS_11char_traitsIcEEE5sputnB7v160006EPKcl, symObjAddr: 0x287C, symBinAddr: 0x1000034EC, symSize: 0x3C }
  - { offsetInCU: 0xB775, offset: 0xB775, size: 0x8, addend: 0x0, symName: __ZNSt3__112basic_stringIcNS_11char_traitsIcEENS_9allocatorIcEEEC1B7v160006Emc, symObjAddr: 0x28B8, symBinAddr: 0x100003528, symSize: 0x3C }
  - { offsetInCU: 0xB7BC, offset: 0xB7BC, size: 0x8, addend: 0x0, symName: __ZNKSt3__112basic_stringIcNS_11char_traitsIcEENS_9allocatorIcEEE4dataB7v160006Ev, symObjAddr: 0x28F4, symBinAddr: 0x100003564, symSize: 0x28 }
  - { offsetInCU: 0xB7E1, offset: 0xB7E1, size: 0x8, addend: 0x0, symName: __ZNSt3__18ios_base5widthB7v160006El, symObjAddr: 0x291C, symBinAddr: 0x10000358C, symSize: 0x2C }
  - { offsetInCU: 0xB826, offset: 0xB826, size: 0x8, addend: 0x0, symName: __ZNSt3__112basic_stringIcNS_11char_traitsIcEENS_9allocatorIcEEEC2B7v160006Emc, symObjAddr: 0x2948, symBinAddr: 0x1000035B8, symSize: 0x54 }
  - { offsetInCU: 0xB86D, offset: 0xB86D, size: 0x8, addend: 0x0, symName: __ZNSt3__117__compressed_pairINS_12basic_stringIcNS_11char_traitsIcEENS_9allocatorIcEEE5__repES5_EC1B7v160006INS_18__default_init_tagESA_EEOT_OT0_, symObjAddr: 0x299C, symBinAddr: 0x10000360C, symSize: 0x3C }
  - { offsetInCU: 0xB8C4, offset: 0xB8C4, size: 0x8, addend: 0x0, symName: __ZNSt3__117__compressed_pairINS_12basic_stringIcNS_11char_traitsIcEENS_9allocatorIcEEE5__repES5_EC2B7v160006INS_18__default_init_tagESA_EEOT_OT0_, symObjAddr: 0x29E8, symBinAddr: 0x100003658, symSize: 0x3C }
  - { offsetInCU: 0xB91B, offset: 0xB91B, size: 0x8, addend: 0x0, symName: __ZNSt3__122__compressed_pair_elemINS_12basic_stringIcNS_11char_traitsIcEENS_9allocatorIcEEE5__repELi0ELb0EEC2B7v160006ENS_18__default_init_tagE, symObjAddr: 0x2A24, symBinAddr: 0x100003694, symSize: 0x14 }
  - { offsetInCU: 0xB94F, offset: 0xB94F, size: 0x8, addend: 0x0, symName: __ZNSt3__122__compressed_pair_elemINS_9allocatorIcEELi1ELb1EEC2B7v160006ENS_18__default_init_tagE, symObjAddr: 0x2A38, symBinAddr: 0x1000036A8, symSize: 0x2C }
  - { offsetInCU: 0xB983, offset: 0xB983, size: 0x8, addend: 0x0, symName: __ZNSt3__19allocatorIcEC2B7v160006Ev, symObjAddr: 0x2A64, symBinAddr: 0x1000036D4, symSize: 0x2C }
  - { offsetInCU: 0xB9AC, offset: 0xB9AC, size: 0x8, addend: 0x0, symName: __ZNSt3__116__non_trivial_ifILb1ENS_9allocatorIcEEEC2B7v160006Ev, symObjAddr: 0x2A90, symBinAddr: 0x100003700, symSize: 0x14 }
  - { offsetInCU: 0xB9D5, offset: 0xB9D5, size: 0x8, addend: 0x0, symName: __ZNKSt3__112basic_stringIcNS_11char_traitsIcEENS_9allocatorIcEEE13__get_pointerB7v160006Ev, symObjAddr: 0x2AB8, symBinAddr: 0x100003728, symSize: 0x54 }
  - { offsetInCU: 0xB9FA, offset: 0xB9FA, size: 0x8, addend: 0x0, symName: __ZNKSt3__112basic_stringIcNS_11char_traitsIcEENS_9allocatorIcEEE9__is_longB7v160006Ev, symObjAddr: 0x2B0C, symBinAddr: 0x10000377C, symSize: 0x38 }
  - { offsetInCU: 0xBA1F, offset: 0xBA1F, size: 0x8, addend: 0x0, symName: __ZNKSt3__112basic_stringIcNS_11char_traitsIcEENS_9allocatorIcEEE18__get_long_pointerB7v160006Ev, symObjAddr: 0x2B44, symBinAddr: 0x1000037B4, symSize: 0x28 }
  - { offsetInCU: 0xBA44, offset: 0xBA44, size: 0x8, addend: 0x0, symName: __ZNKSt3__112basic_stringIcNS_11char_traitsIcEENS_9allocatorIcEEE19__get_short_pointerB7v160006Ev, symObjAddr: 0x2B6C, symBinAddr: 0x1000037DC, symSize: 0x28 }
  - { offsetInCU: 0xBA69, offset: 0xBA69, size: 0x8, addend: 0x0, symName: __ZNKSt3__117__compressed_pairINS_12basic_stringIcNS_11char_traitsIcEENS_9allocatorIcEEE5__repES5_E5firstB7v160006Ev, symObjAddr: 0x2B94, symBinAddr: 0x100003804, symSize: 0x24 }
  - { offsetInCU: 0xBA8E, offset: 0xBA8E, size: 0x8, addend: 0x0, symName: __ZNKSt3__122__compressed_pair_elemINS_12basic_stringIcNS_11char_traitsIcEENS_9allocatorIcEEE5__repELi0ELb0EE5__getB7v160006Ev, symObjAddr: 0x2BB8, symBinAddr: 0x100003828, symSize: 0x14 }
  - { offsetInCU: 0xBAB3, offset: 0xBAB3, size: 0x8, addend: 0x0, symName: __ZNSt3__114pointer_traitsIPKcE10pointer_toB7v160006ERS1_, symObjAddr: 0x2BCC, symBinAddr: 0x10000383C, symSize: 0x14 }
  - { offsetInCU: 0xBAD6, offset: 0xBAD6, size: 0x8, addend: 0x0, symName: __ZNSt3__119ostreambuf_iteratorIcNS_11char_traitsIcEEEC2B7v160006ERNS_13basic_ostreamIcS2_EE, symObjAddr: 0x2BE0, symBinAddr: 0x100003850, symSize: 0x54 }
  - { offsetInCU: 0xBB0C, offset: 0xBB0C, size: 0x8, addend: 0x0, symName: __ZNKSt3__19basic_iosIcNS_11char_traitsIcEEE5rdbufB7v160006Ev, symObjAddr: 0x2C34, symBinAddr: 0x1000038A4, symSize: 0x24 }
  - { offsetInCU: 0xBB33, offset: 0xBB33, size: 0x8, addend: 0x0, symName: __ZNKSt3__18ios_base5rdbufB7v160006Ev, symObjAddr: 0x2C58, symBinAddr: 0x1000038C8, symSize: 0x18 }
  - { offsetInCU: 0xBB58, offset: 0xBB58, size: 0x8, addend: 0x0, symName: __ZNSt3__111char_traitsIcE11eq_int_typeEii, symObjAddr: 0x2C70, symBinAddr: 0x1000038E0, symSize: 0x28 }
  - { offsetInCU: 0xBB89, offset: 0xBB89, size: 0x8, addend: 0x0, symName: __ZNSt3__111char_traitsIcE3eofEv, symObjAddr: 0x2C98, symBinAddr: 0x100003908, symSize: 0x8 }
  - { offsetInCU: 0xBB9C, offset: 0xBB9C, size: 0x8, addend: 0x0, symName: __ZNKSt3__19basic_iosIcNS_11char_traitsIcEEE5widenB7v160006Ec, symObjAddr: 0x2CA0, symBinAddr: 0x100003910, symSize: 0x84 }
  - { offsetInCU: 0xBC09, offset: 0xBC09, size: 0x8, addend: 0x0, symName: __ZNKSt3__15ctypeIcE5widenB7v160006Ec, symObjAddr: 0x2D50, symBinAddr: 0x1000039C0, symSize: 0x38 }
  - { offsetInCU: 0xBC3C, offset: 0xBC3C, size: 0x8, addend: 0x0, symName: __ZNSt3__18ios_base8setstateB7v160006Ej, symObjAddr: 0x2D88, symBinAddr: 0x1000039F8, symSize: 0x34 }
...
