---
triple:          'arm64-apple-darwin'
binary-path:     "/Users/youjin/Documents/GitHub/BOJ/1245_농장관리/1245_농장관리"
relocations:
  - { offsetInCU: 0x3F, offset: 0x3F, size: 0x8, addend: 0x0, symName: _n, symObjAddr: 0x484FC, symBinAddr: 0x100010040, symSize: 0x0 }
  - { offsetInCU: 0x5B, offset: 0x5B, size: 0x8, addend: 0x0, symName: _m, symObjAddr: 0x48500, symBinAddr: 0x100010044, symSize: 0x0 }
  - { offsetInCU: 0x70, offset: 0x70, size: 0x8, addend: 0x0, symName: _map, symObjAddr: 0x48504, symBinAddr: 0x100010048, symSize: 0x0 }
  - { offsetInCU: 0x9E, offset: 0x9E, size: 0x8, addend: 0x0, symName: _check, symObjAddr: 0x4F264, symBinAddr: 0x100016DA8, symSize: 0x0 }
  - { offsetInCU: 0xB3, offset: 0xB3, size: 0x8, addend: 0x0, symName: _dir, symObjAddr: 0x7D9C, symBinAddr: 0x100010000, symSize: 0x0 }
  - { offsetInCU: 0x5DCD, offset: 0x5DCD, size: 0x8, addend: 0x0, symName: __ZNSt3__117__floyd_sift_downB7v160006INS_17_ClassicAlgPolicyERNS_4lessINS_5tupleIJiiiEEEEENS_11__wrap_iterIPS4_EEEET1_SA_OT0_NS_15iterator_traitsISA_E15difference_typeE, symObjAddr: 0x4378, symBinAddr: 0x100007E20, symSize: 0x148 }
  - { offsetInCU: 0x6737, offset: 0x6737, size: 0x8, addend: 0x0, symName: __ZNSt3__124__put_character_sequenceB7v160006IcNS_11char_traitsIcEEEERNS_13basic_ostreamIT_T0_EES7_PKS4_m, symObjAddr: 0x7000, symBinAddr: 0x10000AAA8, symSize: 0x1EC }
  - { offsetInCU: 0x97C0, offset: 0x97C0, size: 0x8, addend: 0x0, symName: __ZNSt3__13getB7v160006ILm1EJiiiEEERKNS_13tuple_elementIXT_ENS_5tupleIJDpT0_EEEE4typeERKS5_, symObjAddr: 0x708, symBinAddr: 0x1000041B0, symSize: 0x28 }
  - { offsetInCU: 0x980D, offset: 0x980D, size: 0x8, addend: 0x0, symName: __ZNSt3__13getB7v160006ILm2EJiiiEEERKNS_13tuple_elementIXT_ENS_5tupleIJDpT0_EEEE4typeERKS5_, symObjAddr: 0x754, symBinAddr: 0x1000041FC, symSize: 0x28 }
  - { offsetInCU: 0x985A, offset: 0x985A, size: 0x8, addend: 0x0, symName: __ZNSt3__19make_pairB7v160006IRiS1_EENS_4pairINS_18__unwrap_ref_decayIT_E4typeENS3_IT0_E4typeEEEOS4_OS7_, symObjAddr: 0x7F8, symBinAddr: 0x1000042A0, symSize: 0x34 }
  - { offsetInCU: 0x98A9, offset: 0x98A9, size: 0x8, addend: 0x0, symName: __ZNSt3__1lsB7v160006INS_11char_traitsIcEEEERNS_13basic_ostreamIcT_EES6_c, symObjAddr: 0x89C, symBinAddr: 0x100004344, symSize: 0x34 }
  - { offsetInCU: 0x9928, offset: 0x9928, size: 0x8, addend: 0x0, symName: __ZNSt3__1neB7v160006ERKNS_16__deque_iteratorINS_4pairIiiEEPS2_RS2_PS3_lLl512EEES8_, symObjAddr: 0xFB0, symBinAddr: 0x100004A58, symSize: 0x34 }
  - { offsetInCU: 0x9965, offset: 0x9965, size: 0x8, addend: 0x0, symName: __ZNSt3__1eqB7v160006ERKNS_16__deque_iteratorINS_4pairIiiEEPS2_RS2_PS3_lLl512EEES8_, symObjAddr: 0x1250, symBinAddr: 0x100004CF8, symSize: 0x30 }
  - { offsetInCU: 0x99A2, offset: 0x99A2, size: 0x8, addend: 0x0, symName: __ZNSt3__119__libcpp_deallocateB7v160006EPvmm, symObjAddr: 0x1358, symBinAddr: 0x100004E00, symSize: 0x30 }
  - { offsetInCU: 0x99EA, offset: 0x99EA, size: 0x8, addend: 0x0, symName: __ZNSt3__127__do_deallocate_handle_sizeB7v160006IJEEEvPvmDpT_, symObjAddr: 0x1388, symBinAddr: 0x100004E30, symSize: 0x28 }
  - { offsetInCU: 0x9A28, offset: 0x9A28, size: 0x8, addend: 0x0, symName: __ZNSt3__124__libcpp_operator_deleteB7v160006IJPvEEEvDpT_, symObjAddr: 0x13B0, symBinAddr: 0x100004E58, symSize: 0x24 }
  - { offsetInCU: 0x9A5D, offset: 0x9A5D, size: 0x8, addend: 0x0, symName: __ZNSt3__112__to_addressB7v160006IPNS_4pairIiiEEEEPT_S5_, symObjAddr: 0x1634, symBinAddr: 0x1000050DC, symSize: 0x14 }
  - { offsetInCU: 0x9A92, offset: 0x9A92, size: 0x8, addend: 0x0, symName: __ZNSt3__118__debug_db_erase_cB7v160006INS_6vectorINS_5tupleIJiiiEEENS_9allocatorIS3_EEEEEEvPT_, symObjAddr: 0x1994, symBinAddr: 0x10000543C, symSize: 0x10 }
  - { offsetInCU: 0x9AC3, offset: 0x9AC3, size: 0x8, addend: 0x0, symName: __ZNSt3__112__to_addressB7v160006INS_5tupleIJiiiEEEEEPT_S4_, symObjAddr: 0x1AD8, symBinAddr: 0x100005580, symSize: 0x14 }
  - { offsetInCU: 0x9AF8, offset: 0x9AF8, size: 0x8, addend: 0x0, symName: __ZNSt3__119__debug_db_insert_cB7v160006INS_6vectorINS_5tupleIJiiiEEENS_9allocatorIS3_EEEEEEvPT_, symObjAddr: 0x1D80, symBinAddr: 0x100005828, symSize: 0x10 }
  - { offsetInCU: 0x9B29, offset: 0x9B29, size: 0x8, addend: 0x0, symName: __ZNSt3__19push_heapB7v160006INS_11__wrap_iterIPNS_5tupleIJiiiEEEEENS_4lessIS3_EEEEvT_S8_T0_, symObjAddr: 0x1EC4, symBinAddr: 0x10000596C, symSize: 0x40 }
  - { offsetInCU: 0x9B7F, offset: 0x9B7F, size: 0x8, addend: 0x0, symName: __ZNSt3__13maxB7v160006ImEERKT_S3_S3_, symObjAddr: 0x251C, symBinAddr: 0x100005FC4, symSize: 0x2C }
  - { offsetInCU: 0x9BC2, offset: 0x9BC2, size: 0x8, addend: 0x0, symName: __ZNSt3__13minB7v160006ImEERKT_S3_S3_, symObjAddr: 0x2548, symBinAddr: 0x100005FF0, symSize: 0x2C }
  - { offsetInCU: 0x9E06, offset: 0x9E06, size: 0x8, addend: 0x0, symName: __ZNSt3__13minB7v160006ImNS_6__lessImmEEEERKT_S5_S5_T0_, symObjAddr: 0x25D4, symBinAddr: 0x10000607C, symSize: 0x54 }
  - { offsetInCU: 0x9E9B, offset: 0x9E9B, size: 0x8, addend: 0x0, symName: __ZNSt3__120__throw_length_errorB7v160006EPKc, symObjAddr: 0x26B4, symBinAddr: 0x10000615C, symSize: 0x64 }
  - { offsetInCU: 0x9EC3, offset: 0x9EC3, size: 0x8, addend: 0x0, symName: __ZNSt3__13maxB7v160006ImNS_6__lessImmEEEERKT_S5_S5_T0_, symObjAddr: 0x2798, symBinAddr: 0x100006240, symSize: 0x54 }
  - { offsetInCU: 0x9F1D, offset: 0x9F1D, size: 0x8, addend: 0x0, symName: __ZNSt3__119__allocate_at_leastB7v160006INS_9allocatorINS_5tupleIJiiiEEEEEEENS_19__allocation_resultINS_16allocator_traitsIT_E7pointerEEERS7_m, symObjAddr: 0x2908, symBinAddr: 0x1000063B0, symSize: 0x40 }
  - { offsetInCU: 0x9F60, offset: 0x9F60, size: 0x8, addend: 0x0, symName: __ZNSt3__117__libcpp_allocateB7v160006Emm, symObjAddr: 0x2A90, symBinAddr: 0x100006538, symSize: 0x28 }
  - { offsetInCU: 0x9F9D, offset: 0x9F9D, size: 0x8, addend: 0x0, symName: __ZNSt3__121__libcpp_operator_newB7v160006IJmEEEPvDpT_, symObjAddr: 0x2AB8, symBinAddr: 0x100006560, symSize: 0x24 }
  - { offsetInCU: 0x9FD6, offset: 0x9FD6, size: 0x8, addend: 0x0, symName: __ZNSt3__142__uninitialized_allocator_move_if_noexceptB7v160006INS_9allocatorINS_5tupleIJiiiEEEEENS_16reverse_iteratorIPS3_EES7_S7_EET2_RT_T0_T1_S8_, symObjAddr: 0x2B40, symBinAddr: 0x1000065E8, symSize: 0x12C }
  - { offsetInCU: 0xA076, offset: 0xA076, size: 0x8, addend: 0x0, symName: __ZNSt3__14swapB7v160006IPNS_5tupleIJiiiEEEEENS_9enable_ifIXaasr21is_move_constructibleIT_EE5valuesr18is_move_assignableIS5_EE5valueEvE4typeERS5_S8_, symObjAddr: 0x2CB8, symBinAddr: 0x100006760, symSize: 0x3C }
  - { offsetInCU: 0xA0C7, offset: 0xA0C7, size: 0x8, addend: 0x0, symName: __ZNSt3__125__debug_db_invalidate_allB7v160006INS_6vectorINS_5tupleIJiiiEEENS_9allocatorIS3_EEEEEEvPT_, symObjAddr: 0x2DBC, symBinAddr: 0x100006864, symSize: 0x10 }
  - { offsetInCU: 0xA0F8, offset: 0xA0F8, size: 0x8, addend: 0x0, symName: __ZNSt3__122__make_exception_guardB7v160006INS_29_AllocatorDestroyRangeReverseINS_9allocatorINS_5tupleIJiiiEEEEENS_16reverse_iteratorIPS4_EEEEEENS_28__exception_guard_exceptionsIT_EESB_, symObjAddr: 0x2DCC, symBinAddr: 0x100006874, symSize: 0x4C }
  - { offsetInCU: 0xA12E, offset: 0xA12E, size: 0x8, addend: 0x0, symName: __ZNSt3__1neB7v160006IPNS_5tupleIJiiiEEES3_EEbRKNS_16reverse_iteratorIT_EERKNS4_IT0_EE, symObjAddr: 0x2E5C, symBinAddr: 0x100006904, symSize: 0x48 }
  - { offsetInCU: 0xA17A, offset: 0xA17A, size: 0x8, addend: 0x0, symName: __ZNSt3__112__to_addressB7v160006INS_16reverse_iteratorIPNS_5tupleIJiiiEEEEEvEENS_5decayIDTclsr19__to_address_helperIT_EE6__callclsr3stdE7declvalIRKS7_EEEEE4typeES9_, symObjAddr: 0x2EA4, symBinAddr: 0x10000694C, symSize: 0x24 }
  - { offsetInCU: 0xA1D9, offset: 0xA1D9, size: 0x8, addend: 0x0, symName: __ZNSt3__119__allocator_destroyB7v160006INS_9allocatorINS_5tupleIJiiiEEEEENS_16reverse_iteratorINS5_IPS3_EEEES8_EEvRT_T0_T1_, symObjAddr: 0x3154, symBinAddr: 0x100006BFC, symSize: 0x70 }
  - { offsetInCU: 0xA23E, offset: 0xA23E, size: 0x8, addend: 0x0, symName: __ZNSt3__1neB7v160006INS_16reverse_iteratorIPNS_5tupleIJiiiEEEEES5_EEbRKNS1_IT_EERKNS1_IT0_EE, symObjAddr: 0x3200, symBinAddr: 0x100006CA8, symSize: 0x60 }
  - { offsetInCU: 0xA28A, offset: 0xA28A, size: 0x8, addend: 0x0, symName: __ZNSt3__112__to_addressB7v160006INS_16reverse_iteratorINS1_IPNS_5tupleIJiiiEEEEEEEvEENS_5decayIDTclsr19__to_address_helperIT_EE6__callclsr3stdE7declvalIRKS8_EEEEE4typeESA_, symObjAddr: 0x3260, symBinAddr: 0x100006D08, symSize: 0x24 }
  - { offsetInCU: 0xA2E9, offset: 0xA2E9, size: 0x8, addend: 0x0, symName: __ZNSt3__111__push_heapB7v160006INS_17_ClassicAlgPolicyENS_11__wrap_iterIPNS_5tupleIJiiiEEEEENS_4lessIS4_EEEEvT0_S9_RT1_, symObjAddr: 0x35C8, symBinAddr: 0x100007070, symSize: 0x5C }
  - { offsetInCU: 0xA356, offset: 0xA356, size: 0x8, addend: 0x0, symName: __ZNSt3__1miB7v160006IPNS_5tupleIJiiiEEES3_EEDTmicldtfp_4baseEcldtfp0_4baseEERKNS_11__wrap_iterIT_EERKNS5_IT0_EE, symObjAddr: 0x3624, symBinAddr: 0x1000070CC, symSize: 0x48 }
  - { offsetInCU: 0xA3A2, offset: 0xA3A2, size: 0x8, addend: 0x0, symName: __ZNSt3__19__sift_upB7v160006INS_17_ClassicAlgPolicyERNS_4lessINS_5tupleIJiiiEEEEENS_11__wrap_iterIPS4_EEEEvT1_SA_OT0_NS_15iterator_traitsISA_E15difference_typeE, symObjAddr: 0x366C, symBinAddr: 0x100007114, symSize: 0x164 }
  - { offsetInCU: 0xA4C5, offset: 0xA4C5, size: 0x8, addend: 0x0, symName: __ZNSt3__1ltB7v160006IJiiiEJiiiEEEbRKNS_5tupleIJDpT_EEERKNS1_IJDpT0_EEE, symObjAddr: 0x3924, symBinAddr: 0x1000073CC, symSize: 0x34 }
  - { offsetInCU: 0xA573, offset: 0xA573, size: 0x8, addend: 0x0, symName: __ZNSt3__13getB7v160006ILm0EJiiiEEERKNS_13tuple_elementIXT_ENS_5tupleIJDpT0_EEEE4typeERKS5_, symObjAddr: 0x3A30, symBinAddr: 0x1000074D8, symSize: 0x24 }
  - { offsetInCU: 0xA695, offset: 0xA695, size: 0x8, addend: 0x0, symName: __ZNSt3__127__memberwise_forward_assignB7v160006INS_5tupleIJiiiEEES2_JiiiEJLm0ELm1ELm2EEEEvRT_OT0_NS_13__tuple_typesIJDpT1_EEENS_15__tuple_indicesIJXspT2_EEEE, symObjAddr: 0x3C44, symBinAddr: 0x1000076EC, symSize: 0xB0 }
  - { offsetInCU: 0xA723, offset: 0xA723, size: 0x8, addend: 0x0, symName: __ZNSt3__19__swallowB7v160006IJiiiEEEvDpOT_, symObjAddr: 0x3CF4, symBinAddr: 0x10000779C, symSize: 0x18 }
  - { offsetInCU: 0xA774, offset: 0xA774, size: 0x8, addend: 0x0, symName: __ZNSt3__13getB7v160006ILm0EJiiiEEERNS_13tuple_elementIXT_ENS_5tupleIJDpT0_EEEE4typeERS5_, symObjAddr: 0x3D0C, symBinAddr: 0x1000077B4, symSize: 0x24 }
  - { offsetInCU: 0xA7C1, offset: 0xA7C1, size: 0x8, addend: 0x0, symName: __ZNSt3__13getB7v160006ILm1EJiiiEEERNS_13tuple_elementIXT_ENS_5tupleIJDpT0_EEEE4typeERS5_, symObjAddr: 0x3D30, symBinAddr: 0x1000077D8, symSize: 0x28 }
  - { offsetInCU: 0xA80E, offset: 0xA80E, size: 0x8, addend: 0x0, symName: __ZNSt3__13getB7v160006ILm2EJiiiEEERNS_13tuple_elementIXT_ENS_5tupleIJDpT0_EEEE4typeERS5_, symObjAddr: 0x3D58, symBinAddr: 0x100007800, symSize: 0x28 }
  - { offsetInCU: 0xA85B, offset: 0xA85B, size: 0x8, addend: 0x0, symName: __ZNSt3__18pop_heapB7v160006INS_11__wrap_iterIPNS_5tupleIJiiiEEEEENS_4lessIS3_EEEEvT_S8_T0_, symObjAddr: 0x41C4, symBinAddr: 0x100007C6C, symSize: 0x58 }
  - { offsetInCU: 0xA8BF, offset: 0xA8BF, size: 0x8, addend: 0x0, symName: __ZNSt3__110__pop_heapB7v160006INS_17_ClassicAlgPolicyENS_4lessINS_5tupleIJiiiEEEEENS_11__wrap_iterIPS4_EEEEvT1_S9_RT0_NS_15iterator_traitsIS9_E15difference_typeE, symObjAddr: 0x4248, symBinAddr: 0x100007CF0, symSize: 0x130 }
  - { offsetInCU: 0xA96F, offset: 0xA96F, size: 0x8, addend: 0x0, symName: __ZNSt3__1eqB7v160006IPNS_5tupleIJiiiEEEEEbRKNS_11__wrap_iterIT_EES8_, symObjAddr: 0x44C0, symBinAddr: 0x100007F68, symSize: 0x48 }
  - { offsetInCU: 0xAE0B, offset: 0xAE0B, size: 0x8, addend: 0x0, symName: __ZNSt3__14swapB7v160006IPPNS_4pairIiiEEEENS_9enable_ifIXaasr21is_move_constructibleIT_EE5valuesr18is_move_assignableIS6_EE5valueEvE4typeERS6_S9_, symObjAddr: 0x588C, symBinAddr: 0x100009334, symSize: 0x3C }
  - { offsetInCU: 0xAE5C, offset: 0xAE5C, size: 0x8, addend: 0x0, symName: __ZNSt3__14moveB7v160006IPPNS_4pairIiiEES4_EET0_T_S6_S5_, symObjAddr: 0x5970, symBinAddr: 0x100009418, symSize: 0x40 }
  - { offsetInCU: 0xAED2, offset: 0xAED2, size: 0x8, addend: 0x0, symName: __ZNSt3__16__moveB7v160006INS_17_ClassicAlgPolicyEPPNS_4pairIiiEES5_S5_EENS2_IT0_T2_EES6_T1_S7_, symObjAddr: 0x5B14, symBinAddr: 0x1000095BC, symSize: 0x44 }
  - { offsetInCU: 0xAF3E, offset: 0xAF3E, size: 0x8, addend: 0x0, symName: __ZNSt3__123__dispatch_copy_or_moveB7v160006INS_17_ClassicAlgPolicyENS_11__move_loopIS1_EENS_14__move_trivialEPPNS_4pairIiiEES8_S8_EENS5_IT2_T4_EES9_T3_SA_, symObjAddr: 0x5B58, symBinAddr: 0x100009600, symSize: 0x44 }
  - { offsetInCU: 0xAFBC, offset: 0xAFBC, size: 0x8, addend: 0x0, symName: __ZNSt3__121__unwrap_and_dispatchB7v160006INS_10__overloadINS_11__move_loopINS_17_ClassicAlgPolicyEEENS_14__move_trivialEEEPPNS_4pairIiiEESA_SA_Li0EEENS7_IT0_T2_EESB_T1_SC_, symObjAddr: 0x5B9C, symBinAddr: 0x100009644, symSize: 0xB4 }
  - { offsetInCU: 0xB04A, offset: 0xB04A, size: 0x8, addend: 0x0, symName: __ZNSt3__114__unwrap_rangeB7v160006IPPNS_4pairIiiEES4_EENS1_IT0_S5_EET_S7_, symObjAddr: 0x5C50, symBinAddr: 0x1000096F8, symSize: 0x60 }
  - { offsetInCU: 0xB20E, offset: 0xB20E, size: 0x8, addend: 0x0, symName: __ZNSt3__113__unwrap_iterB7v160006IPPNS_4pairIiiEENS_18__unwrap_iter_implIS4_Lb1EEELi0EEEDTclsrT0_8__unwrapclsr3stdE7declvalIT_EEEES8_, symObjAddr: 0x5CF8, symBinAddr: 0x1000097A0, symSize: 0x24 }
  - { offsetInCU: 0xB252, offset: 0xB252, size: 0x8, addend: 0x0, symName: __ZNSt3__19make_pairB7v160006IPPNS_4pairIiiEES4_EENS1_INS_18__unwrap_ref_decayIT_E4typeENS5_IT0_E4typeEEEOS6_OS9_, symObjAddr: 0x5D1C, symBinAddr: 0x1000097C4, symSize: 0x38 }
  - { offsetInCU: 0xB2A1, offset: 0xB2A1, size: 0x8, addend: 0x0, symName: __ZNSt3__114__rewrap_rangeB7v160006IPPNS_4pairIiiEES4_EET_S5_T0_, symObjAddr: 0x5D54, symBinAddr: 0x1000097FC, symSize: 0x2C }
  - { offsetInCU: 0xB2ED, offset: 0xB2ED, size: 0x8, addend: 0x0, symName: __ZNSt3__113__rewrap_iterB7v160006IPPNS_4pairIiiEES4_NS_18__unwrap_iter_implIS4_Lb1EEEEET_S7_T0_, symObjAddr: 0x5D80, symBinAddr: 0x100009828, symSize: 0x3C }
  - { offsetInCU: 0xB342, offset: 0xB342, size: 0x8, addend: 0x0, symName: __ZNSt3__119__copy_trivial_implB7v160006IPNS_4pairIiiEES3_EENS1_IPT_PT0_EES5_S5_S7_, symObjAddr: 0x5DBC, symBinAddr: 0x100009864, symSize: 0x84 }
  - { offsetInCU: 0xB3AA, offset: 0xB3AA, size: 0x8, addend: 0x0, symName: __ZNSt3__19make_pairB7v160006IRPPNS_4pairIiiEES4_EENS1_INS_18__unwrap_ref_decayIT_E4typeENS6_IT0_E4typeEEEOS7_OSA_, symObjAddr: 0x5E40, symBinAddr: 0x1000098E8, symSize: 0x38 }
  - { offsetInCU: 0xB44C, offset: 0xB44C, size: 0x8, addend: 0x0, symName: __ZNSt3__18distanceB7v160006INS_13move_iteratorIPPNS_4pairIiiEEEEEENS_15iterator_traitsIT_E15difference_typeES8_S8_, symObjAddr: 0x5FCC, symBinAddr: 0x100009A74, symSize: 0x3C }
  - { offsetInCU: 0xB48F, offset: 0xB48F, size: 0x8, addend: 0x0, symName: __ZNSt3__110__distanceB7v160006INS_13move_iteratorIPPNS_4pairIiiEEEEEENS_15iterator_traitsIT_E15difference_typeES8_S8_NS_26random_access_iterator_tagE, symObjAddr: 0x6104, symBinAddr: 0x100009BAC, symSize: 0x30 }
  - { offsetInCU: 0xB4DC, offset: 0xB4DC, size: 0x8, addend: 0x0, symName: __ZNSt3__1miB7v160006IPPNS_4pairIiiEES4_EEDTmicldtfp_4baseEcldtfp0_4baseEERKNS_13move_iteratorIT_EERKNS6_IT0_EE, symObjAddr: 0x6134, symBinAddr: 0x100009BDC, symSize: 0x48 }
  - { offsetInCU: 0xB52B, offset: 0xB52B, size: 0x8, addend: 0x0, symName: __ZNSt3__113move_backwardB7v160006IPPNS_4pairIiiEES4_EET0_T_S6_S5_, symObjAddr: 0x6338, symBinAddr: 0x100009DE0, symSize: 0x40 }
  - { offsetInCU: 0xB585, offset: 0xB585, size: 0x8, addend: 0x0, symName: __ZNSt3__115__move_backwardB7v160006INS_17_ClassicAlgPolicyEPPNS_4pairIiiEES5_S5_EENS2_IT0_T2_EES6_T1_S7_, symObjAddr: 0x6378, symBinAddr: 0x100009E20, symSize: 0x44 }
  - { offsetInCU: 0xB5F1, offset: 0xB5F1, size: 0x8, addend: 0x0, symName: __ZNSt3__123__dispatch_copy_or_moveB7v160006INS_17_ClassicAlgPolicyENS_20__move_backward_loopIS1_EENS_23__move_backward_trivialEPPNS_4pairIiiEES8_S8_EENS5_IT2_T4_EES9_T3_SA_, symObjAddr: 0x63BC, symBinAddr: 0x100009E64, symSize: 0x44 }
  - { offsetInCU: 0xB66F, offset: 0xB66F, size: 0x8, addend: 0x0, symName: __ZNSt3__121__unwrap_and_dispatchB7v160006INS_10__overloadINS_20__move_backward_loopINS_17_ClassicAlgPolicyEEENS_23__move_backward_trivialEEEPPNS_4pairIiiEESA_SA_Li0EEENS7_IT0_T2_EESB_T1_SC_, symObjAddr: 0x6400, symBinAddr: 0x100009EA8, symSize: 0xB4 }
  - { offsetInCU: 0xB743, offset: 0xB743, size: 0x8, addend: 0x0, symName: __ZNSt3__128__copy_backward_trivial_implB7v160006IPNS_4pairIiiEES3_EENS1_IPT_PT0_EES5_S5_S7_, symObjAddr: 0x64FC, symBinAddr: 0x100009FA4, symSize: 0x94 }
  - { offsetInCU: 0xB7AB, offset: 0xB7AB, size: 0x8, addend: 0x0, symName: __ZNSt3__19make_pairB7v160006IRPPNS_4pairIiiEES5_EENS1_INS_18__unwrap_ref_decayIT_E4typeENS6_IT0_E4typeEEEOS7_OSA_, symObjAddr: 0x6590, symBinAddr: 0x10000A038, symSize: 0x38 }
  - { offsetInCU: 0xB7FA, offset: 0xB7FA, size: 0x8, addend: 0x0, symName: __ZNSt3__119__allocate_at_leastB7v160006INS_9allocatorIPNS_4pairIiiEEEEEENS_19__allocation_resultINS_16allocator_traitsIT_E7pointerEEERS8_m, symObjAddr: 0x6748, symBinAddr: 0x10000A1F0, symSize: 0x40 }
  - { offsetInCU: 0xB83D, offset: 0xB83D, size: 0x8, addend: 0x0, symName: __ZNSt3__112__to_addressB7v160006INS_4pairIiiEEEEPT_S4_, symObjAddr: 0x6EE4, symBinAddr: 0x10000A98C, symSize: 0x14 }
  - { offsetInCU: 0xB872, offset: 0xB872, size: 0x8, addend: 0x0, symName: __ZNSt3__116__pad_and_outputB7v160006IcNS_11char_traitsIcEEEENS_19ostreambuf_iteratorIT_T0_EES6_PKS4_S8_S8_RNS_8ios_baseES4_, symObjAddr: 0x7208, symBinAddr: 0x10000ACB0, symSize: 0x240 }
  - { offsetInCU: 0xB941, offset: 0xB941, size: 0x8, addend: 0x0, symName: __ZNSt3__119__debug_db_insert_cB7v160006INS_12basic_stringIcNS_11char_traitsIcEENS_9allocatorIcEEEEEEvPT_, symObjAddr: 0x76BC, symBinAddr: 0x10000B164, symSize: 0x10 }
  - { offsetInCU: 0xB972, offset: 0xB972, size: 0x8, addend: 0x0, symName: __ZNSt3__112__to_addressB7v160006IKcEEPT_S3_, symObjAddr: 0x7788, symBinAddr: 0x10000B230, symSize: 0x14 }
  - { offsetInCU: 0xB9DA, offset: 0xB9DA, size: 0x8, addend: 0x0, symName: __ZNSt3__19use_facetB7v160006INS_5ctypeIcEEEERKT_RKNS_6localeE, symObjAddr: 0x7A08, symBinAddr: 0x10000B4B0, symSize: 0x2C }
  - { offsetInCU: 0xC1DE, offset: 0xC1DE, size: 0x8, addend: 0x0, symName: __ZSt28__throw_bad_array_new_lengthB7v160006v, symObjAddr: 0x2A5C, symBinAddr: 0x100006504, symSize: 0x34 }
  - { offsetInCU: 0xC87D, offset: 0xC87D, size: 0x8, addend: 0x0, symName: __ZNSt3__16vectorINS_5tupleIJiiiEEENS_9allocatorIS2_EEE26__swap_out_circular_bufferERNS_14__split_bufferIS2_RS4_EE, symObjAddr: 0x235C, symBinAddr: 0x100005E04, symSize: 0x118 }
  - { offsetInCU: 0xED9B, offset: 0xED9B, size: 0x8, addend: 0x0, symName: __Z7B_Checkii, symObjAddr: 0x0, symBinAddr: 0x100003AA8, symSize: 0xAC }
  - { offsetInCU: 0xEDD6, offset: 0xEDD6, size: 0x8, addend: 0x0, symName: _main, symObjAddr: 0xAC, symBinAddr: 0x100003B54, symSize: 0x514 }
  - { offsetInCU: 0xEEDA, offset: 0xEEDA, size: 0x8, addend: 0x0, symName: __ZNSt3__19basic_iosIcNS_11char_traitsIcEEE3tieB7v160006EPNS_13basic_ostreamIcS2_EE, symObjAddr: 0x5C0, symBinAddr: 0x100004068, symSize: 0x2C }
  - { offsetInCU: 0xEF78, offset: 0xEF78, size: 0x8, addend: 0x0, symName: __ZNSt3__114priority_queueINS_5tupleIJiiiEEENS_6vectorIS2_NS_9allocatorIS2_EEEENS_4lessIS2_EEEC1B7v160006Ev, symObjAddr: 0x5EC, symBinAddr: 0x100004094, symSize: 0x2C }
  - { offsetInCU: 0xEFA2, offset: 0xEFA2, size: 0x8, addend: 0x0, symName: __ZNSt3__114priority_queueINS_5tupleIJiiiEEENS_6vectorIS2_NS_9allocatorIS2_EEEENS_4lessIS2_EEE4pushEOS2_, symObjAddr: 0x618, symBinAddr: 0x1000040C0, symSize: 0x58 }
  - { offsetInCU: 0xEFD9, offset: 0xEFD9, size: 0x8, addend: 0x0, symName: __ZNSt3__15tupleIJiiiEEC1B7v160006IJRiS3_S3_ELi0EEEDpOT_, symObjAddr: 0x670, symBinAddr: 0x100004118, symSize: 0x44 }
  - { offsetInCU: 0xF08E, offset: 0xF08E, size: 0x8, addend: 0x0, symName: __ZNSt3__15queueINS_4pairIiiEENS_5dequeIS2_NS_9allocatorIS2_EEEEEC1B7v160006Ev, symObjAddr: 0x6B4, symBinAddr: 0x10000415C, symSize: 0x2C }
  - { offsetInCU: 0xF0B8, offset: 0xF0B8, size: 0x8, addend: 0x0, symName: __ZNKSt3__114priority_queueINS_5tupleIJiiiEEENS_6vectorIS2_NS_9allocatorIS2_EEEENS_4lessIS2_EEE5emptyB7v160006Ev, symObjAddr: 0x6E0, symBinAddr: 0x100004188, symSize: 0x28 }
  - { offsetInCU: 0xF0DE, offset: 0xF0DE, size: 0x8, addend: 0x0, symName: __ZNKSt3__114priority_queueINS_5tupleIJiiiEEENS_6vectorIS2_NS_9allocatorIS2_EEEENS_4lessIS2_EEE3topB7v160006Ev, symObjAddr: 0x730, symBinAddr: 0x1000041D8, symSize: 0x24 }
  - { offsetInCU: 0xF104, offset: 0xF104, size: 0x8, addend: 0x0, symName: __ZNSt3__114priority_queueINS_5tupleIJiiiEEENS_6vectorIS2_NS_9allocatorIS2_EEEENS_4lessIS2_EEE3popEv, symObjAddr: 0x77C, symBinAddr: 0x100004224, symSize: 0x50 }
  - { offsetInCU: 0xF12C, offset: 0xF12C, size: 0x8, addend: 0x0, symName: __ZNSt3__15queueINS_4pairIiiEENS_5dequeIS2_NS_9allocatorIS2_EEEEE4pushB7v160006EOS2_, symObjAddr: 0x7CC, symBinAddr: 0x100004274, symSize: 0x2C }
  - { offsetInCU: 0xF161, offset: 0xF161, size: 0x8, addend: 0x0, symName: __ZNKSt3__15queueINS_4pairIiiEENS_5dequeIS2_NS_9allocatorIS2_EEEEE5emptyB7v160006Ev, symObjAddr: 0x82C, symBinAddr: 0x1000042D4, symSize: 0x28 }
  - { offsetInCU: 0xF187, offset: 0xF187, size: 0x8, addend: 0x0, symName: __ZNSt3__15queueINS_4pairIiiEENS_5dequeIS2_NS_9allocatorIS2_EEEEE5frontB7v160006Ev, symObjAddr: 0x854, symBinAddr: 0x1000042FC, symSize: 0x24 }
  - { offsetInCU: 0xF1AD, offset: 0xF1AD, size: 0x8, addend: 0x0, symName: __ZNSt3__15queueINS_4pairIiiEENS_5dequeIS2_NS_9allocatorIS2_EEEEE3popB7v160006Ev, symObjAddr: 0x878, symBinAddr: 0x100004320, symSize: 0x24 }
  - { offsetInCU: 0xF1D3, offset: 0xF1D3, size: 0x8, addend: 0x0, symName: __ZNSt3__15queueINS_4pairIiiEENS_5dequeIS2_NS_9allocatorIS2_EEEEED1Ev, symObjAddr: 0x8D0, symBinAddr: 0x100004378, symSize: 0x2C }
  - { offsetInCU: 0xF200, offset: 0xF200, size: 0x8, addend: 0x0, symName: __ZNSt3__114priority_queueINS_5tupleIJiiiEEENS_6vectorIS2_NS_9allocatorIS2_EEEENS_4lessIS2_EEED1Ev, symObjAddr: 0x8FC, symBinAddr: 0x1000043A4, symSize: 0x2C }
  - { offsetInCU: 0xF22D, offset: 0xF22D, size: 0x8, addend: 0x0, symName: __ZNSt3__15tupleIJiiiEEC2B7v160006IJRiS3_S3_ELi0EEEDpOT_, symObjAddr: 0x928, symBinAddr: 0x1000043D0, symSize: 0x44 }
  - { offsetInCU: 0xF29F, offset: 0xF29F, size: 0x8, addend: 0x0, symName: __ZNSt3__112__tuple_implINS_15__tuple_indicesIJLm0ELm1ELm2EEEEJiiiEEC1B7v160006IJLm0ELm1ELm2EEJiiiEJEJEJRiS5_S5_EEENS1_IJXspT_EEEENS_13__tuple_typesIJDpT0_EEENS1_IJXspT1_EEEENS7_IJDpT2_EEEDpOT3_, symObjAddr: 0x96C, symBinAddr: 0x100004414, symSize: 0x44 }
  - { offsetInCU: 0xF36E, offset: 0xF36E, size: 0x8, addend: 0x0, symName: __ZNSt3__112__tuple_implINS_15__tuple_indicesIJLm0ELm1ELm2EEEEJiiiEEC2B7v160006IJLm0ELm1ELm2EEJiiiEJEJEJRiS5_S5_EEENS1_IJXspT_EEEENS_13__tuple_typesIJDpT0_EEENS1_IJXspT1_EEEENS7_IJDpT2_EEEDpOT3_, symObjAddr: 0x9B0, symBinAddr: 0x100004458, symSize: 0x5C }
  - { offsetInCU: 0xF43D, offset: 0xF43D, size: 0x8, addend: 0x0, symName: __ZNSt3__112__tuple_leafILm0EiLb0EEC2B7v160006IRivEEOT_, symObjAddr: 0xA0C, symBinAddr: 0x1000044B4, symSize: 0x24 }
  - { offsetInCU: 0xF480, offset: 0xF480, size: 0x8, addend: 0x0, symName: __ZNSt3__112__tuple_leafILm1EiLb0EEC2B7v160006IRivEEOT_, symObjAddr: 0xA30, symBinAddr: 0x1000044D8, symSize: 0x24 }
  - { offsetInCU: 0xF4C3, offset: 0xF4C3, size: 0x8, addend: 0x0, symName: __ZNSt3__112__tuple_leafILm2EiLb0EEC2B7v160006IRivEEOT_, symObjAddr: 0xA54, symBinAddr: 0x1000044FC, symSize: 0x24 }
  - { offsetInCU: 0xF506, offset: 0xF506, size: 0x8, addend: 0x0, symName: __ZNKSt3__112__tuple_leafILm1EiLb0EE3getB7v160006Ev, symObjAddr: 0xA78, symBinAddr: 0x100004520, symSize: 0x14 }
  - { offsetInCU: 0xF52C, offset: 0xF52C, size: 0x8, addend: 0x0, symName: __ZNKSt3__112__tuple_leafILm2EiLb0EE3getB7v160006Ev, symObjAddr: 0xA8C, symBinAddr: 0x100004534, symSize: 0x14 }
  - { offsetInCU: 0xF552, offset: 0xF552, size: 0x8, addend: 0x0, symName: __ZNSt3__14pairIiiEC1B7v160006IRiS3_LPv0EEEOT_OT0_, symObjAddr: 0xAA0, symBinAddr: 0x100004548, symSize: 0x3C }
  - { offsetInCU: 0xF5B0, offset: 0xF5B0, size: 0x8, addend: 0x0, symName: __ZNSt3__14pairIiiEC2B7v160006IRiS3_LPv0EEEOT_OT0_, symObjAddr: 0xADC, symBinAddr: 0x100004584, symSize: 0x34 }
  - { offsetInCU: 0xF60E, offset: 0xF60E, size: 0x8, addend: 0x0, symName: __ZNSt3__15queueINS_4pairIiiEENS_5dequeIS2_NS_9allocatorIS2_EEEEED2Ev, symObjAddr: 0xB10, symBinAddr: 0x1000045B8, symSize: 0x2C }
  - { offsetInCU: 0xF63B, offset: 0xF63B, size: 0x8, addend: 0x0, symName: __ZNSt3__15dequeINS_4pairIiiEENS_9allocatorIS2_EEED1B7v160006Ev, symObjAddr: 0xB3C, symBinAddr: 0x1000045E4, symSize: 0x2C }
  - { offsetInCU: 0xF665, offset: 0xF665, size: 0x8, addend: 0x0, symName: __ZNSt3__15dequeINS_4pairIiiEENS_9allocatorIS2_EEED2B7v160006Ev, symObjAddr: 0xB68, symBinAddr: 0x100004610, symSize: 0x9C }
  - { offsetInCU: 0xF6BB, offset: 0xF6BB, size: 0x8, addend: 0x0, symName: __ZNSt3__15dequeINS_4pairIiiEENS_9allocatorIS2_EEE5clearEv, symObjAddr: 0xC04, symBinAddr: 0x1000046AC, symSize: 0x180 }
  - { offsetInCU: 0xF716, offset: 0xF716, size: 0x8, addend: 0x0, symName: __ZNSt3__114__split_bufferIPNS_4pairIiiEENS_9allocatorIS3_EEE5beginB7v160006Ev, symObjAddr: 0xD84, symBinAddr: 0x10000482C, symSize: 0x18 }
  - { offsetInCU: 0xF73C, offset: 0xF73C, size: 0x8, addend: 0x0, symName: __ZNSt3__114__split_bufferIPNS_4pairIiiEENS_9allocatorIS3_EEE3endB7v160006Ev, symObjAddr: 0xD9C, symBinAddr: 0x100004844, symSize: 0x18 }
  - { offsetInCU: 0xF762, offset: 0xF762, size: 0x8, addend: 0x0, symName: __ZNSt3__116allocator_traitsINS_9allocatorINS_4pairIiiEEEEE10deallocateB7v160006ERS4_PS3_m, symObjAddr: 0xDB4, symBinAddr: 0x10000485C, symSize: 0x34 }
  - { offsetInCU: 0xF7A4, offset: 0xF7A4, size: 0x8, addend: 0x0, symName: __ZNSt3__15dequeINS_4pairIiiEENS_9allocatorIS2_EEE7__allocB7v160006Ev, symObjAddr: 0xDE8, symBinAddr: 0x100004890, symSize: 0x28 }
  - { offsetInCU: 0xF7CA, offset: 0xF7CA, size: 0x8, addend: 0x0, symName: __ZNSt3__114__split_bufferIPNS_4pairIiiEENS_9allocatorIS3_EEED1Ev, symObjAddr: 0xE10, symBinAddr: 0x1000048B8, symSize: 0x2C }
  - { offsetInCU: 0xF7F6, offset: 0xF7F6, size: 0x8, addend: 0x0, symName: __ZNSt3__15dequeINS_4pairIiiEENS_9allocatorIS2_EEE5beginB7v160006Ev, symObjAddr: 0xE3C, symBinAddr: 0x1000048E4, symSize: 0xB8 }
  - { offsetInCU: 0xF82B, offset: 0xF82B, size: 0x8, addend: 0x0, symName: __ZNSt3__15dequeINS_4pairIiiEENS_9allocatorIS2_EEE3endB7v160006Ev, symObjAddr: 0xEF4, symBinAddr: 0x10000499C, symSize: 0xBC }
  - { offsetInCU: 0xF86F, offset: 0xF86F, size: 0x8, addend: 0x0, symName: __ZNSt3__116allocator_traitsINS_9allocatorINS_4pairIiiEEEEE7destroyB7v160006IS3_vEEvRS4_PT_, symObjAddr: 0xFF0, symBinAddr: 0x100004A98, symSize: 0x2C }
  - { offsetInCU: 0xF8AC, offset: 0xF8AC, size: 0x8, addend: 0x0, symName: __ZNKSt3__116__deque_iteratorINS_4pairIiiEEPS2_RS2_PS3_lLl512EEdeB7v160006Ev, symObjAddr: 0x101C, symBinAddr: 0x100004AC4, symSize: 0x18 }
  - { offsetInCU: 0xF8D2, offset: 0xF8D2, size: 0x8, addend: 0x0, symName: __ZNSt3__116__deque_iteratorINS_4pairIiiEEPS2_RS2_PS3_lLl512EEppB7v160006Ev, symObjAddr: 0x1034, symBinAddr: 0x100004ADC, symSize: 0x70 }
  - { offsetInCU: 0xF8F8, offset: 0xF8F8, size: 0x8, addend: 0x0, symName: __ZNSt3__15dequeINS_4pairIiiEENS_9allocatorIS2_EEE6__sizeB7v160006Ev, symObjAddr: 0x10A4, symBinAddr: 0x100004B4C, symSize: 0x28 }
  - { offsetInCU: 0xF91E, offset: 0xF91E, size: 0x8, addend: 0x0, symName: __ZNKSt3__114__split_bufferIPNS_4pairIiiEENS_9allocatorIS3_EEE4sizeB7v160006Ev, symObjAddr: 0x10CC, symBinAddr: 0x100004B74, symSize: 0x28 }
  - { offsetInCU: 0xF944, offset: 0xF944, size: 0x8, addend: 0x0, symName: __ZNSt3__114__split_bufferIPNS_4pairIiiEENS_9allocatorIS3_EEE5frontB7v160006Ev, symObjAddr: 0x10F4, symBinAddr: 0x100004B9C, symSize: 0x18 }
  - { offsetInCU: 0xF96A, offset: 0xF96A, size: 0x8, addend: 0x0, symName: __ZNSt3__114__split_bufferIPNS_4pairIiiEENS_9allocatorIS3_EEE9pop_frontB7v160006Ev, symObjAddr: 0x110C, symBinAddr: 0x100004BB4, symSize: 0x2C }
  - { offsetInCU: 0xF990, offset: 0xF990, size: 0x8, addend: 0x0, symName: __ZNKSt3__114__split_bufferIPNS_4pairIiiEENS_9allocatorIS3_EEE5emptyB7v160006Ev, symObjAddr: 0x1138, symBinAddr: 0x100004BE0, symSize: 0x28 }
  - { offsetInCU: 0xF9B6, offset: 0xF9B6, size: 0x8, addend: 0x0, symName: __ZNSt3__116__deque_iteratorINS_4pairIiiEEPS2_RS2_PS3_lLl512EEC1B7v160006ES5_S3_, symObjAddr: 0x1160, symBinAddr: 0x100004C08, symSize: 0x3C }
  - { offsetInCU: 0xF9FE, offset: 0xF9FE, size: 0x8, addend: 0x0, symName: __ZNSt3__116__deque_iteratorINS_4pairIiiEEPS2_RS2_PS3_lLl512EEC2B7v160006ES5_S3_, symObjAddr: 0x119C, symBinAddr: 0x100004C44, symSize: 0x2C }
  - { offsetInCU: 0xFA46, offset: 0xFA46, size: 0x8, addend: 0x0, symName: __ZNKSt3__15dequeINS_4pairIiiEENS_9allocatorIS2_EEE4sizeB7v160006Ev, symObjAddr: 0x11C8, symBinAddr: 0x100004C70, symSize: 0x28 }
  - { offsetInCU: 0xFA6C, offset: 0xFA6C, size: 0x8, addend: 0x0, symName: __ZNKSt3__15dequeINS_4pairIiiEENS_9allocatorIS2_EEE6__sizeB7v160006Ev, symObjAddr: 0x11F0, symBinAddr: 0x100004C98, symSize: 0x28 }
  - { offsetInCU: 0xFA92, offset: 0xFA92, size: 0x8, addend: 0x0, symName: __ZNKSt3__117__compressed_pairImNS_9allocatorINS_4pairIiiEEEEE5firstB7v160006Ev, symObjAddr: 0x1218, symBinAddr: 0x100004CC0, symSize: 0x24 }
  - { offsetInCU: 0xFAB8, offset: 0xFAB8, size: 0x8, addend: 0x0, symName: __ZNKSt3__122__compressed_pair_elemImLi0ELb0EE5__getB7v160006Ev, symObjAddr: 0x123C, symBinAddr: 0x100004CE4, symSize: 0x14 }
  - { offsetInCU: 0xFADE, offset: 0xFADE, size: 0x8, addend: 0x0, symName: __ZNSt3__19allocatorINS_4pairIiiEEE7destroyB7v160006EPS2_, symObjAddr: 0x1280, symBinAddr: 0x100004D28, symSize: 0x14 }
  - { offsetInCU: 0xFB12, offset: 0xFB12, size: 0x8, addend: 0x0, symName: __ZNSt3__117__compressed_pairImNS_9allocatorINS_4pairIiiEEEEE5firstB7v160006Ev, symObjAddr: 0x1294, symBinAddr: 0x100004D3C, symSize: 0x24 }
  - { offsetInCU: 0xFB38, offset: 0xFB38, size: 0x8, addend: 0x0, symName: __ZNSt3__122__compressed_pair_elemImLi0ELb0EE5__getB7v160006Ev, symObjAddr: 0x12B8, symBinAddr: 0x100004D60, symSize: 0x14 }
  - { offsetInCU: 0xFB5E, offset: 0xFB5E, size: 0x8, addend: 0x0, symName: __ZNSt3__114__split_bufferIPNS_4pairIiiEENS_9allocatorIS3_EEE19__destruct_at_beginB7v160006EPS3_, symObjAddr: 0x12CC, symBinAddr: 0x100004D74, symSize: 0x2C }
  - { offsetInCU: 0xFB92, offset: 0xFB92, size: 0x8, addend: 0x0, symName: __ZNSt3__114__split_bufferIPNS_4pairIiiEENS_9allocatorIS3_EEE19__destruct_at_beginEPS3_NS_17integral_constantIbLb1EEE, symObjAddr: 0x12F8, symBinAddr: 0x100004DA0, symSize: 0x20 }
  - { offsetInCU: 0xFBD2, offset: 0xFBD2, size: 0x8, addend: 0x0, symName: __ZNSt3__19allocatorINS_4pairIiiEEE10deallocateB7v160006EPS2_m, symObjAddr: 0x1318, symBinAddr: 0x100004DC0, symSize: 0x40 }
  - { offsetInCU: 0xFC14, offset: 0xFC14, size: 0x8, addend: 0x0, symName: __ZNSt3__117__compressed_pairImNS_9allocatorINS_4pairIiiEEEEE6secondB7v160006Ev, symObjAddr: 0x13D4, symBinAddr: 0x100004E7C, symSize: 0x24 }
  - { offsetInCU: 0xFC3A, offset: 0xFC3A, size: 0x8, addend: 0x0, symName: __ZNSt3__122__compressed_pair_elemINS_9allocatorINS_4pairIiiEEEELi1ELb1EE5__getB7v160006Ev, symObjAddr: 0x13F8, symBinAddr: 0x100004EA0, symSize: 0x14 }
  - { offsetInCU: 0xFC60, offset: 0xFC60, size: 0x8, addend: 0x0, symName: __ZNSt3__114__split_bufferIPNS_4pairIiiEENS_9allocatorIS3_EEED2Ev, symObjAddr: 0x140C, symBinAddr: 0x100004EB4, symSize: 0x8C }
  - { offsetInCU: 0xFC8C, offset: 0xFC8C, size: 0x8, addend: 0x0, symName: __ZNSt3__114__split_bufferIPNS_4pairIiiEENS_9allocatorIS3_EEE5clearB7v160006Ev, symObjAddr: 0x1498, symBinAddr: 0x100004F40, symSize: 0x28 }
  - { offsetInCU: 0xFCB2, offset: 0xFCB2, size: 0x8, addend: 0x0, symName: __ZNSt3__116allocator_traitsINS_9allocatorIPNS_4pairIiiEEEEE10deallocateB7v160006ERS5_PS4_m, symObjAddr: 0x14C0, symBinAddr: 0x100004F68, symSize: 0x34 }
  - { offsetInCU: 0xFCF4, offset: 0xFCF4, size: 0x8, addend: 0x0, symName: __ZNSt3__114__split_bufferIPNS_4pairIiiEENS_9allocatorIS3_EEE7__allocB7v160006Ev, symObjAddr: 0x14F4, symBinAddr: 0x100004F9C, symSize: 0x28 }
  - { offsetInCU: 0xFD1A, offset: 0xFD1A, size: 0x8, addend: 0x0, symName: __ZNKSt3__114__split_bufferIPNS_4pairIiiEENS_9allocatorIS3_EEE8capacityB7v160006Ev, symObjAddr: 0x151C, symBinAddr: 0x100004FC4, symSize: 0x40 }
  - { offsetInCU: 0xFD40, offset: 0xFD40, size: 0x8, addend: 0x0, symName: __ZNSt3__114__split_bufferIPNS_4pairIiiEENS_9allocatorIS3_EEE17__destruct_at_endB7v160006EPS3_, symObjAddr: 0x155C, symBinAddr: 0x100005004, symSize: 0x2C }
  - { offsetInCU: 0xFD74, offset: 0xFD74, size: 0x8, addend: 0x0, symName: __ZNSt3__114__split_bufferIPNS_4pairIiiEENS_9allocatorIS3_EEE17__destruct_at_endB7v160006EPS3_NS_17integral_constantIbLb0EEE, symObjAddr: 0x1588, symBinAddr: 0x100005030, symSize: 0x80 }
  - { offsetInCU: 0xFDB4, offset: 0xFDB4, size: 0x8, addend: 0x0, symName: __ZNSt3__116allocator_traitsINS_9allocatorIPNS_4pairIiiEEEEE7destroyB7v160006IS4_vEEvRS5_PT_, symObjAddr: 0x1608, symBinAddr: 0x1000050B0, symSize: 0x2C }
  - { offsetInCU: 0xFDF1, offset: 0xFDF1, size: 0x8, addend: 0x0, symName: __ZNSt3__19allocatorIPNS_4pairIiiEEE7destroyB7v160006EPS3_, symObjAddr: 0x1648, symBinAddr: 0x1000050F0, symSize: 0x14 }
  - { offsetInCU: 0xFE25, offset: 0xFE25, size: 0x8, addend: 0x0, symName: __ZNSt3__19allocatorIPNS_4pairIiiEEE10deallocateB7v160006EPS3_m, symObjAddr: 0x165C, symBinAddr: 0x100005104, symSize: 0x40 }
  - { offsetInCU: 0xFE67, offset: 0xFE67, size: 0x8, addend: 0x0, symName: __ZNSt3__117__compressed_pairIPPNS_4pairIiiEENS_9allocatorIS3_EEE6secondB7v160006Ev, symObjAddr: 0x169C, symBinAddr: 0x100005144, symSize: 0x24 }
  - { offsetInCU: 0xFE8D, offset: 0xFE8D, size: 0x8, addend: 0x0, symName: __ZNSt3__122__compressed_pair_elemINS_9allocatorIPNS_4pairIiiEEEELi1ELb1EE5__getB7v160006Ev, symObjAddr: 0x16C0, symBinAddr: 0x100005168, symSize: 0x14 }
  - { offsetInCU: 0xFEB3, offset: 0xFEB3, size: 0x8, addend: 0x0, symName: __ZNKSt3__114__split_bufferIPNS_4pairIiiEENS_9allocatorIS3_EEE9__end_capB7v160006Ev, symObjAddr: 0x16D4, symBinAddr: 0x10000517C, symSize: 0x28 }
  - { offsetInCU: 0xFED9, offset: 0xFED9, size: 0x8, addend: 0x0, symName: __ZNKSt3__117__compressed_pairIPPNS_4pairIiiEENS_9allocatorIS3_EEE5firstB7v160006Ev, symObjAddr: 0x16FC, symBinAddr: 0x1000051A4, symSize: 0x24 }
  - { offsetInCU: 0xFEFF, offset: 0xFEFF, size: 0x8, addend: 0x0, symName: __ZNKSt3__122__compressed_pair_elemIPPNS_4pairIiiEELi0ELb0EE5__getB7v160006Ev, symObjAddr: 0x1720, symBinAddr: 0x1000051C8, symSize: 0x14 }
  - { offsetInCU: 0xFF25, offset: 0xFF25, size: 0x8, addend: 0x0, symName: __ZNSt3__114priority_queueINS_5tupleIJiiiEEENS_6vectorIS2_NS_9allocatorIS2_EEEENS_4lessIS2_EEED2Ev, symObjAddr: 0x1734, symBinAddr: 0x1000051DC, symSize: 0x2C }
  - { offsetInCU: 0xFF52, offset: 0xFF52, size: 0x8, addend: 0x0, symName: __ZNSt3__16vectorINS_5tupleIJiiiEEENS_9allocatorIS2_EEED1B7v160006Ev, symObjAddr: 0x1760, symBinAddr: 0x100005208, symSize: 0x2C }
  - { offsetInCU: 0xFF7C, offset: 0xFF7C, size: 0x8, addend: 0x0, symName: __ZNSt3__16vectorINS_5tupleIJiiiEEENS_9allocatorIS2_EEED2B7v160006Ev, symObjAddr: 0x178C, symBinAddr: 0x100005234, symSize: 0x44 }
  - { offsetInCU: 0xFFA6, offset: 0xFFA6, size: 0x8, addend: 0x0, symName: __ZNSt3__16vectorINS_5tupleIJiiiEEENS_9allocatorIS2_EEE16__destroy_vectorC1ERS5_, symObjAddr: 0x17D0, symBinAddr: 0x100005278, symSize: 0x34 }
  - { offsetInCU: 0xFFDF, offset: 0xFFDF, size: 0x8, addend: 0x0, symName: __ZNSt3__16vectorINS_5tupleIJiiiEEENS_9allocatorIS2_EEE16__destroy_vectorclB7v160006Ev, symObjAddr: 0x1804, symBinAddr: 0x1000052AC, symSize: 0x9C }
  - { offsetInCU: 0x10005, offset: 0x10005, size: 0x8, addend: 0x0, symName: __ZNSt3__16vectorINS_5tupleIJiiiEEENS_9allocatorIS2_EEE16__destroy_vectorC2ERS5_, symObjAddr: 0x18A0, symBinAddr: 0x100005348, symSize: 0x20 }
  - { offsetInCU: 0x1003E, offset: 0x1003E, size: 0x8, addend: 0x0, symName: __ZNKSt3__16vectorINS_5tupleIJiiiEEENS_9allocatorIS2_EEE17__annotate_deleteB7v160006Ev, symObjAddr: 0x18C0, symBinAddr: 0x100005368, symSize: 0xD4 }
  - { offsetInCU: 0x10064, offset: 0x10064, size: 0x8, addend: 0x0, symName: __ZNSt3__16vectorINS_5tupleIJiiiEEENS_9allocatorIS2_EEE7__clearB7v160006Ev, symObjAddr: 0x19A4, symBinAddr: 0x10000544C, symSize: 0x28 }
  - { offsetInCU: 0x1008A, offset: 0x1008A, size: 0x8, addend: 0x0, symName: __ZNSt3__116allocator_traitsINS_9allocatorINS_5tupleIJiiiEEEEEE10deallocateB7v160006ERS4_PS3_m, symObjAddr: 0x19CC, symBinAddr: 0x100005474, symSize: 0x34 }
  - { offsetInCU: 0x100CC, offset: 0x100CC, size: 0x8, addend: 0x0, symName: __ZNSt3__16vectorINS_5tupleIJiiiEEENS_9allocatorIS2_EEE7__allocB7v160006Ev, symObjAddr: 0x1A00, symBinAddr: 0x1000054A8, symSize: 0x28 }
  - { offsetInCU: 0x100F2, offset: 0x100F2, size: 0x8, addend: 0x0, symName: __ZNKSt3__16vectorINS_5tupleIJiiiEEENS_9allocatorIS2_EEE8capacityB7v160006Ev, symObjAddr: 0x1A28, symBinAddr: 0x1000054D0, symSize: 0x40 }
  - { offsetInCU: 0x10118, offset: 0x10118, size: 0x8, addend: 0x0, symName: __ZNKSt3__16vectorINS_5tupleIJiiiEEENS_9allocatorIS2_EEE31__annotate_contiguous_containerB7v160006EPKvS7_S7_S7_, symObjAddr: 0x1A68, symBinAddr: 0x100005510, symSize: 0x20 }
  - { offsetInCU: 0x1016A, offset: 0x1016A, size: 0x8, addend: 0x0, symName: __ZNKSt3__16vectorINS_5tupleIJiiiEEENS_9allocatorIS2_EEE4dataB7v160006Ev, symObjAddr: 0x1A88, symBinAddr: 0x100005530, symSize: 0x28 }
  - { offsetInCU: 0x10190, offset: 0x10190, size: 0x8, addend: 0x0, symName: __ZNKSt3__16vectorINS_5tupleIJiiiEEENS_9allocatorIS2_EEE4sizeB7v160006Ev, symObjAddr: 0x1AB0, symBinAddr: 0x100005558, symSize: 0x28 }
  - { offsetInCU: 0x101B6, offset: 0x101B6, size: 0x8, addend: 0x0, symName: __ZNSt3__16vectorINS_5tupleIJiiiEEENS_9allocatorIS2_EEE22__base_destruct_at_endB7v160006EPS2_, symObjAddr: 0x1AEC, symBinAddr: 0x100005594, symSize: 0x8C }
  - { offsetInCU: 0x101FA, offset: 0x101FA, size: 0x8, addend: 0x0, symName: __ZNSt3__116allocator_traitsINS_9allocatorINS_5tupleIJiiiEEEEEE7destroyB7v160006IS3_vEEvRS4_PT_, symObjAddr: 0x1B78, symBinAddr: 0x100005620, symSize: 0x2C }
  - { offsetInCU: 0x10237, offset: 0x10237, size: 0x8, addend: 0x0, symName: __ZNSt3__19allocatorINS_5tupleIJiiiEEEE7destroyB7v160006EPS2_, symObjAddr: 0x1BA4, symBinAddr: 0x10000564C, symSize: 0x14 }
  - { offsetInCU: 0x1026B, offset: 0x1026B, size: 0x8, addend: 0x0, symName: __ZNSt3__19allocatorINS_5tupleIJiiiEEEE10deallocateB7v160006EPS2_m, symObjAddr: 0x1BB8, symBinAddr: 0x100005660, symSize: 0x44 }
  - { offsetInCU: 0x102AD, offset: 0x102AD, size: 0x8, addend: 0x0, symName: __ZNSt3__117__compressed_pairIPNS_5tupleIJiiiEEENS_9allocatorIS2_EEE6secondB7v160006Ev, symObjAddr: 0x1BFC, symBinAddr: 0x1000056A4, symSize: 0x24 }
  - { offsetInCU: 0x102D3, offset: 0x102D3, size: 0x8, addend: 0x0, symName: __ZNSt3__122__compressed_pair_elemINS_9allocatorINS_5tupleIJiiiEEEEELi1ELb1EE5__getB7v160006Ev, symObjAddr: 0x1C20, symBinAddr: 0x1000056C8, symSize: 0x14 }
  - { offsetInCU: 0x102F9, offset: 0x102F9, size: 0x8, addend: 0x0, symName: __ZNKSt3__16vectorINS_5tupleIJiiiEEENS_9allocatorIS2_EEE9__end_capB7v160006Ev, symObjAddr: 0x1C34, symBinAddr: 0x1000056DC, symSize: 0x28 }
  - { offsetInCU: 0x1031F, offset: 0x1031F, size: 0x8, addend: 0x0, symName: __ZNKSt3__117__compressed_pairIPNS_5tupleIJiiiEEENS_9allocatorIS2_EEE5firstB7v160006Ev, symObjAddr: 0x1C5C, symBinAddr: 0x100005704, symSize: 0x24 }
  - { offsetInCU: 0x10345, offset: 0x10345, size: 0x8, addend: 0x0, symName: __ZNKSt3__122__compressed_pair_elemIPNS_5tupleIJiiiEEELi0ELb0EE5__getB7v160006Ev, symObjAddr: 0x1C80, symBinAddr: 0x100005728, symSize: 0x14 }
  - { offsetInCU: 0x1036B, offset: 0x1036B, size: 0x8, addend: 0x0, symName: __ZNSt3__114priority_queueINS_5tupleIJiiiEEENS_6vectorIS2_NS_9allocatorIS2_EEEENS_4lessIS2_EEEC2B7v160006Ev, symObjAddr: 0x1C94, symBinAddr: 0x10000573C, symSize: 0x2C }
  - { offsetInCU: 0x10395, offset: 0x10395, size: 0x8, addend: 0x0, symName: __ZNSt3__16vectorINS_5tupleIJiiiEEENS_9allocatorIS2_EEEC1B7v160006Ev, symObjAddr: 0x1CC0, symBinAddr: 0x100005768, symSize: 0x2C }
  - { offsetInCU: 0x103BF, offset: 0x103BF, size: 0x8, addend: 0x0, symName: __ZNSt3__16vectorINS_5tupleIJiiiEEENS_9allocatorIS2_EEEC2B7v160006Ev, symObjAddr: 0x1CEC, symBinAddr: 0x100005794, symSize: 0x58 }
  - { offsetInCU: 0x103F5, offset: 0x103F5, size: 0x8, addend: 0x0, symName: __ZNSt3__117__compressed_pairIPNS_5tupleIJiiiEEENS_9allocatorIS2_EEEC1B7v160006IDnNS_18__default_init_tagEEEOT_OT0_, symObjAddr: 0x1D44, symBinAddr: 0x1000057EC, symSize: 0x3C }
  - { offsetInCU: 0x1044D, offset: 0x1044D, size: 0x8, addend: 0x0, symName: __ZNSt3__117__compressed_pairIPNS_5tupleIJiiiEEENS_9allocatorIS2_EEEC2B7v160006IDnNS_18__default_init_tagEEEOT_OT0_, symObjAddr: 0x1D90, symBinAddr: 0x100005838, symSize: 0x40 }
  - { offsetInCU: 0x104A5, offset: 0x104A5, size: 0x8, addend: 0x0, symName: __ZNSt3__122__compressed_pair_elemIPNS_5tupleIJiiiEEELi0ELb0EEC2B7v160006IDnvEEOT_, symObjAddr: 0x1DD0, symBinAddr: 0x100005878, symSize: 0x1C }
  - { offsetInCU: 0x104E7, offset: 0x104E7, size: 0x8, addend: 0x0, symName: __ZNSt3__122__compressed_pair_elemINS_9allocatorINS_5tupleIJiiiEEEEELi1ELb1EEC2B7v160006ENS_18__default_init_tagE, symObjAddr: 0x1DEC, symBinAddr: 0x100005894, symSize: 0x2C }
  - { offsetInCU: 0x1051B, offset: 0x1051B, size: 0x8, addend: 0x0, symName: __ZNSt3__19allocatorINS_5tupleIJiiiEEEEC2B7v160006Ev, symObjAddr: 0x1E18, symBinAddr: 0x1000058C0, symSize: 0x2C }
  - { offsetInCU: 0x10545, offset: 0x10545, size: 0x8, addend: 0x0, symName: __ZNSt3__116__non_trivial_ifILb1ENS_9allocatorINS_5tupleIJiiiEEEEEEC2B7v160006Ev, symObjAddr: 0x1E44, symBinAddr: 0x1000058EC, symSize: 0x14 }
  - { offsetInCU: 0x1056F, offset: 0x1056F, size: 0x8, addend: 0x0, symName: __ZNSt3__16vectorINS_5tupleIJiiiEEENS_9allocatorIS2_EEE9push_backB7v160006EOS2_, symObjAddr: 0x1E58, symBinAddr: 0x100005900, symSize: 0x6C }
  - { offsetInCU: 0x105A6, offset: 0x105A6, size: 0x8, addend: 0x0, symName: __ZNSt3__16vectorINS_5tupleIJiiiEEENS_9allocatorIS2_EEE5beginB7v160006Ev, symObjAddr: 0x1F04, symBinAddr: 0x1000059AC, symSize: 0x30 }
  - { offsetInCU: 0x105CE, offset: 0x105CE, size: 0x8, addend: 0x0, symName: __ZNSt3__16vectorINS_5tupleIJiiiEEENS_9allocatorIS2_EEE3endB7v160006Ev, symObjAddr: 0x1F34, symBinAddr: 0x1000059DC, symSize: 0x30 }
  - { offsetInCU: 0x105F6, offset: 0x105F6, size: 0x8, addend: 0x0, symName: __ZNSt3__16vectorINS_5tupleIJiiiEEENS_9allocatorIS2_EEE9__end_capB7v160006Ev, symObjAddr: 0x1F64, symBinAddr: 0x100005A0C, symSize: 0x28 }
  - { offsetInCU: 0x1061C, offset: 0x1061C, size: 0x8, addend: 0x0, symName: __ZNSt3__16vectorINS_5tupleIJiiiEEENS_9allocatorIS2_EEE22__construct_one_at_endB7v160006IJS2_EEEvDpOT_, symObjAddr: 0x1F8C, symBinAddr: 0x100005A34, symSize: 0x90 }
  - { offsetInCU: 0x1066B, offset: 0x1066B, size: 0x8, addend: 0x0, symName: __ZNSt3__16vectorINS_5tupleIJiiiEEENS_9allocatorIS2_EEE21__push_back_slow_pathIS2_EEvOT_, symObjAddr: 0x201C, symBinAddr: 0x100005AC4, symSize: 0xD8 }
  - { offsetInCU: 0x106C9, offset: 0x106C9, size: 0x8, addend: 0x0, symName: __ZNSt3__117__compressed_pairIPNS_5tupleIJiiiEEENS_9allocatorIS2_EEE5firstB7v160006Ev, symObjAddr: 0x20F4, symBinAddr: 0x100005B9C, symSize: 0x24 }
  - { offsetInCU: 0x106EF, offset: 0x106EF, size: 0x8, addend: 0x0, symName: __ZNSt3__122__compressed_pair_elemIPNS_5tupleIJiiiEEELi0ELb0EE5__getB7v160006Ev, symObjAddr: 0x2118, symBinAddr: 0x100005BC0, symSize: 0x14 }
  - { offsetInCU: 0x10730, offset: 0x10730, size: 0x8, addend: 0x0, symName: __ZNSt3__16vectorINS_5tupleIJiiiEEENS_9allocatorIS2_EEE21_ConstructTransactionC1B7v160006ERS5_m, symObjAddr: 0x212C, symBinAddr: 0x100005BD4, symSize: 0x3C }
  - { offsetInCU: 0x10778, offset: 0x10778, size: 0x8, addend: 0x0, symName: __ZNSt3__116allocator_traitsINS_9allocatorINS_5tupleIJiiiEEEEEE9constructB7v160006IS3_JS3_EvEEvRS4_PT_DpOT0_, symObjAddr: 0x2168, symBinAddr: 0x100005C10, symSize: 0x34 }
  - { offsetInCU: 0x107CF, offset: 0x107CF, size: 0x8, addend: 0x0, symName: __ZNSt3__16vectorINS_5tupleIJiiiEEENS_9allocatorIS2_EEE21_ConstructTransactionD1B7v160006Ev, symObjAddr: 0x219C, symBinAddr: 0x100005C44, symSize: 0x2C }
  - { offsetInCU: 0x107F9, offset: 0x107F9, size: 0x8, addend: 0x0, symName: __ZNSt3__16vectorINS_5tupleIJiiiEEENS_9allocatorIS2_EEE21_ConstructTransactionC2B7v160006ERS5_m, symObjAddr: 0x21C8, symBinAddr: 0x100005C70, symSize: 0x4C }
  - { offsetInCU: 0x10841, offset: 0x10841, size: 0x8, addend: 0x0, symName: __ZNSt3__19allocatorINS_5tupleIJiiiEEEE9constructB7v160006IS2_JS2_EEEvPT_DpOT0_, symObjAddr: 0x2214, symBinAddr: 0x100005CBC, symSize: 0x30 }
  - { offsetInCU: 0x10897, offset: 0x10897, size: 0x8, addend: 0x0, symName: __ZNSt3__16vectorINS_5tupleIJiiiEEENS_9allocatorIS2_EEE21_ConstructTransactionD2B7v160006Ev, symObjAddr: 0x2244, symBinAddr: 0x100005CEC, symSize: 0x20 }
  - { offsetInCU: 0x108C1, offset: 0x108C1, size: 0x8, addend: 0x0, symName: __ZNKSt3__16vectorINS_5tupleIJiiiEEENS_9allocatorIS2_EEE11__recommendB7v160006Em, symObjAddr: 0x2264, symBinAddr: 0x100005D0C, symSize: 0xB4 }
  - { offsetInCU: 0x10916, offset: 0x10916, size: 0x8, addend: 0x0, symName: __ZNSt3__114__split_bufferINS_5tupleIJiiiEEERNS_9allocatorIS2_EEEC1EmmS5_, symObjAddr: 0x2318, symBinAddr: 0x100005DC0, symSize: 0x44 }
  - { offsetInCU: 0x1096C, offset: 0x1096C, size: 0x8, addend: 0x0, symName: __ZNSt3__114__split_bufferINS_5tupleIJiiiEEERNS_9allocatorIS2_EEED1Ev, symObjAddr: 0x2474, symBinAddr: 0x100005F1C, symSize: 0x2C }
  - { offsetInCU: 0x10998, offset: 0x10998, size: 0x8, addend: 0x0, symName: __ZNKSt3__16vectorINS_5tupleIJiiiEEENS_9allocatorIS2_EEE8max_sizeEv, symObjAddr: 0x24A0, symBinAddr: 0x100005F48, symSize: 0x60 }
  - { offsetInCU: 0x109C0, offset: 0x109C0, size: 0x8, addend: 0x0, symName: __ZNKSt3__16vectorINS_5tupleIJiiiEEENS_9allocatorIS2_EEE20__throw_length_errorB7v160006Ev, symObjAddr: 0x2500, symBinAddr: 0x100005FA8, symSize: 0x1C }
  - { offsetInCU: 0x109F1, offset: 0x109F1, size: 0x8, addend: 0x0, symName: __ZNSt3__116allocator_traitsINS_9allocatorINS_5tupleIJiiiEEEEEE8max_sizeB7v160006IS4_vEEmRKS4_, symObjAddr: 0x2574, symBinAddr: 0x10000601C, symSize: 0x24 }
  - { offsetInCU: 0x10A1F, offset: 0x10A1F, size: 0x8, addend: 0x0, symName: __ZNKSt3__16vectorINS_5tupleIJiiiEEENS_9allocatorIS2_EEE7__allocB7v160006Ev, symObjAddr: 0x2598, symBinAddr: 0x100006040, symSize: 0x28 }
  - { offsetInCU: 0x10A45, offset: 0x10A45, size: 0x8, addend: 0x0, symName: __ZNSt3__114numeric_limitsIlE3maxB7v160006Ev, symObjAddr: 0x25C0, symBinAddr: 0x100006068, symSize: 0x14 }
  - { offsetInCU: 0x10A63, offset: 0x10A63, size: 0x8, addend: 0x0, symName: __ZNKSt3__16__lessImmEclB7v160006ERKmS3_, symObjAddr: 0x2628, symBinAddr: 0x1000060D0, symSize: 0x34 }
  - { offsetInCU: 0x10AA5, offset: 0x10AA5, size: 0x8, addend: 0x0, symName: __ZNKSt3__19allocatorINS_5tupleIJiiiEEEE8max_sizeB7v160006Ev, symObjAddr: 0x265C, symBinAddr: 0x100006104, symSize: 0x18 }
  - { offsetInCU: 0x10ACB, offset: 0x10ACB, size: 0x8, addend: 0x0, symName: __ZNKSt3__117__compressed_pairIPNS_5tupleIJiiiEEENS_9allocatorIS2_EEE6secondB7v160006Ev, symObjAddr: 0x2674, symBinAddr: 0x10000611C, symSize: 0x24 }
  - { offsetInCU: 0x10AF1, offset: 0x10AF1, size: 0x8, addend: 0x0, symName: __ZNKSt3__122__compressed_pair_elemINS_9allocatorINS_5tupleIJiiiEEEEELi1ELb1EE5__getB7v160006Ev, symObjAddr: 0x2698, symBinAddr: 0x100006140, symSize: 0x14 }
  - { offsetInCU: 0x10B17, offset: 0x10B17, size: 0x8, addend: 0x0, symName: __ZNSt3__123__libcpp_numeric_limitsIlLb1EE3maxB7v160006Ev, symObjAddr: 0x26AC, symBinAddr: 0x100006154, symSize: 0x8 }
  - { offsetInCU: 0x10B2B, offset: 0x10B2B, size: 0x8, addend: 0x0, symName: __ZNSt12length_errorC1B7v160006EPKc, symObjAddr: 0x2718, symBinAddr: 0x1000061C0, symSize: 0x34 }
  - { offsetInCU: 0x10B63, offset: 0x10B63, size: 0x8, addend: 0x0, symName: __ZNSt12length_errorC2B7v160006EPKc, symObjAddr: 0x274C, symBinAddr: 0x1000061F4, symSize: 0x4C }
  - { offsetInCU: 0x10B9B, offset: 0x10B9B, size: 0x8, addend: 0x0, symName: __ZNSt3__114__split_bufferINS_5tupleIJiiiEEERNS_9allocatorIS2_EEEC2EmmS5_, symObjAddr: 0x27EC, symBinAddr: 0x100006294, symSize: 0xE0 }
  - { offsetInCU: 0x10C0E, offset: 0x10C0E, size: 0x8, addend: 0x0, symName: __ZNSt3__117__compressed_pairIPNS_5tupleIJiiiEEERNS_9allocatorIS2_EEEC1B7v160006IDnS6_EEOT_OT0_, symObjAddr: 0x28CC, symBinAddr: 0x100006374, symSize: 0x3C }
  - { offsetInCU: 0x10C66, offset: 0x10C66, size: 0x8, addend: 0x0, symName: __ZNSt3__114__split_bufferINS_5tupleIJiiiEEERNS_9allocatorIS2_EEE7__allocB7v160006Ev, symObjAddr: 0x2948, symBinAddr: 0x1000063F0, symSize: 0x28 }
  - { offsetInCU: 0x10C8C, offset: 0x10C8C, size: 0x8, addend: 0x0, symName: __ZNSt3__114__split_bufferINS_5tupleIJiiiEEERNS_9allocatorIS2_EEE9__end_capB7v160006Ev, symObjAddr: 0x2970, symBinAddr: 0x100006418, symSize: 0x28 }
  - { offsetInCU: 0x10CB2, offset: 0x10CB2, size: 0x8, addend: 0x0, symName: __ZNSt3__117__compressed_pairIPNS_5tupleIJiiiEEERNS_9allocatorIS2_EEEC2B7v160006IDnS6_EEOT_OT0_, symObjAddr: 0x2998, symBinAddr: 0x100006440, symSize: 0x48 }
  - { offsetInCU: 0x10D0A, offset: 0x10D0A, size: 0x8, addend: 0x0, symName: __ZNSt3__122__compressed_pair_elemIRNS_9allocatorINS_5tupleIJiiiEEEEELi1ELb0EEC2B7v160006IS5_vEEOT_, symObjAddr: 0x29E0, symBinAddr: 0x100006488, symSize: 0x20 }
  - { offsetInCU: 0x10D4C, offset: 0x10D4C, size: 0x8, addend: 0x0, symName: __ZNSt3__19allocatorINS_5tupleIJiiiEEEE8allocateB7v160006Em, symObjAddr: 0x2A00, symBinAddr: 0x1000064A8, symSize: 0x5C }
  - { offsetInCU: 0x10D80, offset: 0x10D80, size: 0x8, addend: 0x0, symName: __ZNSt3__117__compressed_pairIPNS_5tupleIJiiiEEERNS_9allocatorIS2_EEE6secondB7v160006Ev, symObjAddr: 0x2ADC, symBinAddr: 0x100006584, symSize: 0x28 }
  - { offsetInCU: 0x10DA6, offset: 0x10DA6, size: 0x8, addend: 0x0, symName: __ZNSt3__122__compressed_pair_elemIRNS_9allocatorINS_5tupleIJiiiEEEEELi1ELb0EE5__getB7v160006Ev, symObjAddr: 0x2B04, symBinAddr: 0x1000065AC, symSize: 0x18 }
  - { offsetInCU: 0x10DCC, offset: 0x10DCC, size: 0x8, addend: 0x0, symName: __ZNSt3__117__compressed_pairIPNS_5tupleIJiiiEEERNS_9allocatorIS2_EEE5firstB7v160006Ev, symObjAddr: 0x2B1C, symBinAddr: 0x1000065C4, symSize: 0x24 }
  - { offsetInCU: 0x10DF2, offset: 0x10DF2, size: 0x8, addend: 0x0, symName: __ZNSt3__116reverse_iteratorIPNS_5tupleIJiiiEEEEC1B7v160006ES3_, symObjAddr: 0x2C6C, symBinAddr: 0x100006714, symSize: 0x34 }
  - { offsetInCU: 0x10E2A, offset: 0x10E2A, size: 0x8, addend: 0x0, symName: __ZNKSt3__116reverse_iteratorIPNS_5tupleIJiiiEEEE4baseB7v160006Ev, symObjAddr: 0x2CA0, symBinAddr: 0x100006748, symSize: 0x18 }
  - { offsetInCU: 0x10E50, offset: 0x10E50, size: 0x8, addend: 0x0, symName: __ZNKSt3__16vectorINS_5tupleIJiiiEEENS_9allocatorIS2_EEE14__annotate_newB7v160006Em, symObjAddr: 0x2CF4, symBinAddr: 0x10000679C, symSize: 0xC8 }
  - { offsetInCU: 0x10E85, offset: 0x10E85, size: 0x8, addend: 0x0, symName: __ZNSt3__129_AllocatorDestroyRangeReverseINS_9allocatorINS_5tupleIJiiiEEEEENS_16reverse_iteratorIPS3_EEEC1B7v160006ERS4_RS7_SA_, symObjAddr: 0x2E18, symBinAddr: 0x1000068C0, symSize: 0x44 }
  - { offsetInCU: 0x10EDC, offset: 0x10EDC, size: 0x8, addend: 0x0, symName: __ZNKSt3__116reverse_iteratorIPNS_5tupleIJiiiEEEEdeB7v160006Ev, symObjAddr: 0x2EC8, symBinAddr: 0x100006970, symSize: 0x28 }
  - { offsetInCU: 0x10F10, offset: 0x10F10, size: 0x8, addend: 0x0, symName: __ZNSt3__116reverse_iteratorIPNS_5tupleIJiiiEEEEppB7v160006Ev, symObjAddr: 0x2EF0, symBinAddr: 0x100006998, symSize: 0x20 }
  - { offsetInCU: 0x10F36, offset: 0x10F36, size: 0x8, addend: 0x0, symName: __ZNSt3__128__exception_guard_exceptionsINS_29_AllocatorDestroyRangeReverseINS_9allocatorINS_5tupleIJiiiEEEEENS_16reverse_iteratorIPS4_EEEEE10__completeB7v160006Ev, symObjAddr: 0x2F10, symBinAddr: 0x1000069B8, symSize: 0x1C }
  - { offsetInCU: 0x10F5C, offset: 0x10F5C, size: 0x8, addend: 0x0, symName: __ZNSt3__128__exception_guard_exceptionsINS_29_AllocatorDestroyRangeReverseINS_9allocatorINS_5tupleIJiiiEEEEENS_16reverse_iteratorIPS4_EEEEED1B7v160006Ev, symObjAddr: 0x2F2C, symBinAddr: 0x1000069D4, symSize: 0x2C }
  - { offsetInCU: 0x10F86, offset: 0x10F86, size: 0x8, addend: 0x0, symName: __ZNSt3__128__exception_guard_exceptionsINS_29_AllocatorDestroyRangeReverseINS_9allocatorINS_5tupleIJiiiEEEEENS_16reverse_iteratorIPS4_EEEEEC1B7v160006ES9_, symObjAddr: 0x2F58, symBinAddr: 0x100006A00, symSize: 0x34 }
  - { offsetInCU: 0x10FBF, offset: 0x10FBF, size: 0x8, addend: 0x0, symName: __ZNSt3__128__exception_guard_exceptionsINS_29_AllocatorDestroyRangeReverseINS_9allocatorINS_5tupleIJiiiEEEEENS_16reverse_iteratorIPS4_EEEEEC2B7v160006ES9_, symObjAddr: 0x2F8C, symBinAddr: 0x100006A34, symSize: 0x30 }
  - { offsetInCU: 0x10FF8, offset: 0x10FF8, size: 0x8, addend: 0x0, symName: __ZNSt3__129_AllocatorDestroyRangeReverseINS_9allocatorINS_5tupleIJiiiEEEEENS_16reverse_iteratorIPS3_EEEC2B7v160006ERS4_RS7_SA_, symObjAddr: 0x2FBC, symBinAddr: 0x100006A64, symSize: 0x38 }
  - { offsetInCU: 0x11055, offset: 0x11055, size: 0x8, addend: 0x0, symName: __ZNSt3__119__to_address_helperINS_16reverse_iteratorIPNS_5tupleIJiiiEEEEEvE6__callB7v160006ERKS5_, symObjAddr: 0x2FF4, symBinAddr: 0x100006A9C, symSize: 0x38 }
  - { offsetInCU: 0x11078, offset: 0x11078, size: 0x8, addend: 0x0, symName: __ZNKSt3__116reverse_iteratorIPNS_5tupleIJiiiEEEEptB7v160006Ev, symObjAddr: 0x302C, symBinAddr: 0x100006AD4, symSize: 0x24 }
  - { offsetInCU: 0x1109E, offset: 0x1109E, size: 0x8, addend: 0x0, symName: __ZNSt3__128__exception_guard_exceptionsINS_29_AllocatorDestroyRangeReverseINS_9allocatorINS_5tupleIJiiiEEEEENS_16reverse_iteratorIPS4_EEEEED2B7v160006Ev, symObjAddr: 0x3050, symBinAddr: 0x100006AF8, symSize: 0x50 }
  - { offsetInCU: 0x110C8, offset: 0x110C8, size: 0x8, addend: 0x0, symName: __ZNKSt3__129_AllocatorDestroyRangeReverseINS_9allocatorINS_5tupleIJiiiEEEEENS_16reverse_iteratorIPS3_EEEclB7v160006Ev, symObjAddr: 0x30A0, symBinAddr: 0x100006B48, symSize: 0xB4 }
  - { offsetInCU: 0x110EF, offset: 0x110EF, size: 0x8, addend: 0x0, symName: __ZNSt3__116reverse_iteratorINS0_IPNS_5tupleIJiiiEEEEEEC1B7v160006ES4_, symObjAddr: 0x31C4, symBinAddr: 0x100006C6C, symSize: 0x3C }
  - { offsetInCU: 0x11127, offset: 0x11127, size: 0x8, addend: 0x0, symName: __ZNSt3__116reverse_iteratorINS0_IPNS_5tupleIJiiiEEEEEEppB7v160006Ev, symObjAddr: 0x3284, symBinAddr: 0x100006D2C, symSize: 0x30 }
  - { offsetInCU: 0x1114D, offset: 0x1114D, size: 0x8, addend: 0x0, symName: __ZNKSt3__116reverse_iteratorINS0_IPNS_5tupleIJiiiEEEEEE4baseB7v160006Ev, symObjAddr: 0x32B4, symBinAddr: 0x100006D5C, symSize: 0x24 }
  - { offsetInCU: 0x11179, offset: 0x11179, size: 0x8, addend: 0x0, symName: __ZNSt3__119__to_address_helperINS_16reverse_iteratorINS1_IPNS_5tupleIJiiiEEEEEEEvE6__callB7v160006ERKS6_, symObjAddr: 0x32D8, symBinAddr: 0x100006D80, symSize: 0x38 }
  - { offsetInCU: 0x1119C, offset: 0x1119C, size: 0x8, addend: 0x0, symName: __ZNKSt3__116reverse_iteratorINS0_IPNS_5tupleIJiiiEEEEEEptB7v160006Ev, symObjAddr: 0x3310, symBinAddr: 0x100006DB8, symSize: 0x24 }
  - { offsetInCU: 0x111C2, offset: 0x111C2, size: 0x8, addend: 0x0, symName: __ZNKSt3__116reverse_iteratorINS0_IPNS_5tupleIJiiiEEEEEEdeB7v160006Ev, symObjAddr: 0x3334, symBinAddr: 0x100006DDC, symSize: 0x34 }
  - { offsetInCU: 0x111F6, offset: 0x111F6, size: 0x8, addend: 0x0, symName: __ZNSt3__116reverse_iteratorIPNS_5tupleIJiiiEEEEmmB7v160006Ev, symObjAddr: 0x3368, symBinAddr: 0x100006E10, symSize: 0x20 }
  - { offsetInCU: 0x1121C, offset: 0x1121C, size: 0x8, addend: 0x0, symName: __ZNSt3__116reverse_iteratorINS0_IPNS_5tupleIJiiiEEEEEEC2B7v160006ES4_, symObjAddr: 0x3388, symBinAddr: 0x100006E30, symSize: 0x2C }
  - { offsetInCU: 0x11254, offset: 0x11254, size: 0x8, addend: 0x0, symName: __ZNSt3__116reverse_iteratorIPNS_5tupleIJiiiEEEEC2B7v160006ES3_, symObjAddr: 0x33B4, symBinAddr: 0x100006E5C, symSize: 0x28 }
  - { offsetInCU: 0x1128C, offset: 0x1128C, size: 0x8, addend: 0x0, symName: __ZNSt3__114__split_bufferINS_5tupleIJiiiEEERNS_9allocatorIS2_EEED2Ev, symObjAddr: 0x33DC, symBinAddr: 0x100006E84, symSize: 0x8C }
  - { offsetInCU: 0x112B8, offset: 0x112B8, size: 0x8, addend: 0x0, symName: __ZNSt3__114__split_bufferINS_5tupleIJiiiEEERNS_9allocatorIS2_EEE5clearB7v160006Ev, symObjAddr: 0x3468, symBinAddr: 0x100006F10, symSize: 0x28 }
  - { offsetInCU: 0x112DE, offset: 0x112DE, size: 0x8, addend: 0x0, symName: __ZNKSt3__114__split_bufferINS_5tupleIJiiiEEERNS_9allocatorIS2_EEE8capacityB7v160006Ev, symObjAddr: 0x3490, symBinAddr: 0x100006F38, symSize: 0x40 }
  - { offsetInCU: 0x11304, offset: 0x11304, size: 0x8, addend: 0x0, symName: __ZNSt3__114__split_bufferINS_5tupleIJiiiEEERNS_9allocatorIS2_EEE17__destruct_at_endB7v160006EPS2_, symObjAddr: 0x34D0, symBinAddr: 0x100006F78, symSize: 0x2C }
  - { offsetInCU: 0x11338, offset: 0x11338, size: 0x8, addend: 0x0, symName: __ZNSt3__114__split_bufferINS_5tupleIJiiiEEERNS_9allocatorIS2_EEE17__destruct_at_endB7v160006EPS2_NS_17integral_constantIbLb0EEE, symObjAddr: 0x34FC, symBinAddr: 0x100006FA4, symSize: 0x80 }
  - { offsetInCU: 0x11378, offset: 0x11378, size: 0x8, addend: 0x0, symName: __ZNKSt3__114__split_bufferINS_5tupleIJiiiEEERNS_9allocatorIS2_EEE9__end_capB7v160006Ev, symObjAddr: 0x357C, symBinAddr: 0x100007024, symSize: 0x28 }
  - { offsetInCU: 0x1139E, offset: 0x1139E, size: 0x8, addend: 0x0, symName: __ZNKSt3__117__compressed_pairIPNS_5tupleIJiiiEEERNS_9allocatorIS2_EEE5firstB7v160006Ev, symObjAddr: 0x35A4, symBinAddr: 0x10000704C, symSize: 0x24 }
  - { offsetInCU: 0x113C4, offset: 0x113C4, size: 0x8, addend: 0x0, symName: __ZNKSt3__111__wrap_iterIPNS_5tupleIJiiiEEEE4baseB7v160006Ev, symObjAddr: 0x37D0, symBinAddr: 0x100007278, symSize: 0x18 }
  - { offsetInCU: 0x113EA, offset: 0x113EA, size: 0x8, addend: 0x0, symName: __ZNKSt3__111__wrap_iterIPNS_5tupleIJiiiEEEEplB7v160006El, symObjAddr: 0x37E8, symBinAddr: 0x100007290, symSize: 0x3C }
  - { offsetInCU: 0x1142C, offset: 0x1142C, size: 0x8, addend: 0x0, symName: __ZNKSt3__14lessINS_5tupleIJiiiEEEEclB7v160006ERKS2_S5_, symObjAddr: 0x3824, symBinAddr: 0x1000072CC, symSize: 0x34 }
  - { offsetInCU: 0x11470, offset: 0x11470, size: 0x8, addend: 0x0, symName: __ZNKSt3__111__wrap_iterIPNS_5tupleIJiiiEEEEdeB7v160006Ev, symObjAddr: 0x3858, symBinAddr: 0x100007300, symSize: 0x18 }
  - { offsetInCU: 0x11496, offset: 0x11496, size: 0x8, addend: 0x0, symName: __ZNSt3__111__wrap_iterIPNS_5tupleIJiiiEEEEmmB7v160006Ev, symObjAddr: 0x3870, symBinAddr: 0x100007318, symSize: 0x20 }
  - { offsetInCU: 0x114BC, offset: 0x114BC, size: 0x8, addend: 0x0, symName: __ZNSt3__18_IterOpsINS_17_ClassicAlgPolicyEE11__iter_moveB7v160006IRNS_11__wrap_iterIPNS_5tupleIJiiiEEEEEEENS_9enable_ifIXsr12is_referenceIDTdeclsr3stdE7declvalIRT_EEEEE5valueEDTclsr3stdE4movedeclsr3stdE7declvalISC_EEEEE4typeEOSB_, symObjAddr: 0x3890, symBinAddr: 0x100007338, symSize: 0x28 }
  - { offsetInCU: 0x114E8, offset: 0x114E8, size: 0x8, addend: 0x0, symName: __ZNSt3__15tupleIJiiiEEaSB7v160006EOS1_, symObjAddr: 0x38B8, symBinAddr: 0x100007360, symSize: 0x3C }
  - { offsetInCU: 0x1151D, offset: 0x1151D, size: 0x8, addend: 0x0, symName: __ZNSt3__111__wrap_iterIPNS_5tupleIJiiiEEEEpLB7v160006El, symObjAddr: 0x38F4, symBinAddr: 0x10000739C, symSize: 0x30 }
  - { offsetInCU: 0x11556, offset: 0x11556, size: 0x8, addend: 0x0, symName: __ZNSt3__112__tuple_lessILm3EEclB7v160006INS_5tupleIJiiiEEES4_EEbRKT_RKT0_, symObjAddr: 0x3958, symBinAddr: 0x100007400, symSize: 0xD8 }
  - { offsetInCU: 0x115C0, offset: 0x115C0, size: 0x8, addend: 0x0, symName: __ZNSt3__112__tuple_lessILm2EEclB7v160006INS_5tupleIJiiiEEES4_EEbRKT_RKT0_, symObjAddr: 0x3A54, symBinAddr: 0x1000074FC, symSize: 0xDC }
  - { offsetInCU: 0x11625, offset: 0x11625, size: 0x8, addend: 0x0, symName: __ZNKSt3__112__tuple_leafILm0EiLb0EE3getB7v160006Ev, symObjAddr: 0x3B30, symBinAddr: 0x1000075D8, symSize: 0x14 }
  - { offsetInCU: 0x11650, offset: 0x11650, size: 0x8, addend: 0x0, symName: __ZNSt3__112__tuple_lessILm1EEclB7v160006INS_5tupleIJiiiEEES4_EEbRKT_RKT0_, symObjAddr: 0x3B44, symBinAddr: 0x1000075EC, symSize: 0xDC }
  - { offsetInCU: 0x116BA, offset: 0x116BA, size: 0x8, addend: 0x0, symName: __ZNSt3__112__tuple_lessILm0EEclB7v160006INS_5tupleIJiiiEEES4_EEbRKT_RKT0_, symObjAddr: 0x3C20, symBinAddr: 0x1000076C8, symSize: 0x20 }
  - { offsetInCU: 0x11708, offset: 0x11708, size: 0x8, addend: 0x0, symName: __ZNSt3__18_IterOpsINS_17_ClassicAlgPolicyEE25__validate_iter_referenceB7v160006IRNS_11__wrap_iterIPNS_5tupleIJiiiEEEEEEEvv, symObjAddr: 0x3C40, symBinAddr: 0x1000076E8, symSize: 0x4 }
  - { offsetInCU: 0x11726, offset: 0x11726, size: 0x8, addend: 0x0, symName: __ZNSt3__112__tuple_leafILm0EiLb0EE3getB7v160006Ev, symObjAddr: 0x3D80, symBinAddr: 0x100007828, symSize: 0x14 }
  - { offsetInCU: 0x1174C, offset: 0x1174C, size: 0x8, addend: 0x0, symName: __ZNSt3__112__tuple_leafILm1EiLb0EE3getB7v160006Ev, symObjAddr: 0x3D94, symBinAddr: 0x10000783C, symSize: 0x14 }
  - { offsetInCU: 0x11772, offset: 0x11772, size: 0x8, addend: 0x0, symName: __ZNSt3__112__tuple_leafILm2EiLb0EE3getB7v160006Ev, symObjAddr: 0x3DA8, symBinAddr: 0x100007850, symSize: 0x14 }
  - { offsetInCU: 0x11798, offset: 0x11798, size: 0x8, addend: 0x0, symName: __ZNSt3__16vectorINS_5tupleIJiiiEEENS_9allocatorIS2_EEE11__make_iterB7v160006EPS2_, symObjAddr: 0x3DBC, symBinAddr: 0x100007864, symSize: 0x34 }
  - { offsetInCU: 0x117CD, offset: 0x117CD, size: 0x8, addend: 0x0, symName: __ZNSt3__111__wrap_iterIPNS_5tupleIJiiiEEEEC1B7v160006EPKvS3_, symObjAddr: 0x3DF0, symBinAddr: 0x100007898, symSize: 0x3C }
  - { offsetInCU: 0x11813, offset: 0x11813, size: 0x8, addend: 0x0, symName: __ZNSt3__111__wrap_iterIPNS_5tupleIJiiiEEEEC2B7v160006EPKvS3_, symObjAddr: 0x3E2C, symBinAddr: 0x1000078D4, symSize: 0x24 }
  - { offsetInCU: 0x11859, offset: 0x11859, size: 0x8, addend: 0x0, symName: __ZNSt3__15queueINS_4pairIiiEENS_5dequeIS2_NS_9allocatorIS2_EEEEEC2B7v160006Ev, symObjAddr: 0x3E50, symBinAddr: 0x1000078F8, symSize: 0x2C }
  - { offsetInCU: 0x11883, offset: 0x11883, size: 0x8, addend: 0x0, symName: __ZNSt3__15dequeINS_4pairIiiEENS_9allocatorIS2_EEEC1B7v160006Ev, symObjAddr: 0x3E7C, symBinAddr: 0x100007924, symSize: 0x2C }
  - { offsetInCU: 0x118AD, offset: 0x118AD, size: 0x8, addend: 0x0, symName: __ZNSt3__15dequeINS_4pairIiiEENS_9allocatorIS2_EEEC2B7v160006Ev, symObjAddr: 0x3EA8, symBinAddr: 0x100007950, symSize: 0x50 }
  - { offsetInCU: 0x118D7, offset: 0x118D7, size: 0x8, addend: 0x0, symName: __ZNSt3__114__split_bufferIPNS_4pairIiiEENS_9allocatorIS3_EEEC1Ev, symObjAddr: 0x3EF8, symBinAddr: 0x1000079A0, symSize: 0x2C }
  - { offsetInCU: 0x11909, offset: 0x11909, size: 0x8, addend: 0x0, symName: __ZNSt3__117__compressed_pairImNS_9allocatorINS_4pairIiiEEEEEC1B7v160006IiNS_18__default_init_tagEEEOT_OT0_, symObjAddr: 0x3F24, symBinAddr: 0x1000079CC, symSize: 0x3C }
  - { offsetInCU: 0x11961, offset: 0x11961, size: 0x8, addend: 0x0, symName: __ZNSt3__114__split_bufferIPNS_4pairIiiEENS_9allocatorIS3_EEEC2Ev, symObjAddr: 0x3F60, symBinAddr: 0x100007A08, symSize: 0x50 }
  - { offsetInCU: 0x1198D, offset: 0x1198D, size: 0x8, addend: 0x0, symName: __ZNSt3__117__compressed_pairIPPNS_4pairIiiEENS_9allocatorIS3_EEEC1B7v160006IDnNS_18__default_init_tagEEEOT_OT0_, symObjAddr: 0x3FB0, symBinAddr: 0x100007A58, symSize: 0x3C }
  - { offsetInCU: 0x119E5, offset: 0x119E5, size: 0x8, addend: 0x0, symName: __ZNSt3__117__compressed_pairIPPNS_4pairIiiEENS_9allocatorIS3_EEEC2B7v160006IDnNS_18__default_init_tagEEEOT_OT0_, symObjAddr: 0x3FEC, symBinAddr: 0x100007A94, symSize: 0x40 }
  - { offsetInCU: 0x11A3D, offset: 0x11A3D, size: 0x8, addend: 0x0, symName: __ZNSt3__122__compressed_pair_elemIPPNS_4pairIiiEELi0ELb0EEC2B7v160006IDnvEEOT_, symObjAddr: 0x402C, symBinAddr: 0x100007AD4, symSize: 0x1C }
  - { offsetInCU: 0x11A7F, offset: 0x11A7F, size: 0x8, addend: 0x0, symName: __ZNSt3__122__compressed_pair_elemINS_9allocatorIPNS_4pairIiiEEEELi1ELb1EEC2B7v160006ENS_18__default_init_tagE, symObjAddr: 0x4048, symBinAddr: 0x100007AF0, symSize: 0x2C }
  - { offsetInCU: 0x11AB3, offset: 0x11AB3, size: 0x8, addend: 0x0, symName: __ZNSt3__19allocatorIPNS_4pairIiiEEEC2B7v160006Ev, symObjAddr: 0x4074, symBinAddr: 0x100007B1C, symSize: 0x2C }
  - { offsetInCU: 0x11ADD, offset: 0x11ADD, size: 0x8, addend: 0x0, symName: __ZNSt3__116__non_trivial_ifILb1ENS_9allocatorIPNS_4pairIiiEEEEEC2B7v160006Ev, symObjAddr: 0x40A0, symBinAddr: 0x100007B48, symSize: 0x14 }
  - { offsetInCU: 0x11B07, offset: 0x11B07, size: 0x8, addend: 0x0, symName: __ZNSt3__117__compressed_pairImNS_9allocatorINS_4pairIiiEEEEEC2B7v160006IiNS_18__default_init_tagEEEOT_OT0_, symObjAddr: 0x40B4, symBinAddr: 0x100007B5C, symSize: 0x40 }
  - { offsetInCU: 0x11B5F, offset: 0x11B5F, size: 0x8, addend: 0x0, symName: __ZNSt3__122__compressed_pair_elemImLi0ELb0EEC2B7v160006IivEEOT_, symObjAddr: 0x40F4, symBinAddr: 0x100007B9C, symSize: 0x24 }
  - { offsetInCU: 0x11BA1, offset: 0x11BA1, size: 0x8, addend: 0x0, symName: __ZNSt3__122__compressed_pair_elemINS_9allocatorINS_4pairIiiEEEELi1ELb1EEC2B7v160006ENS_18__default_init_tagE, symObjAddr: 0x4118, symBinAddr: 0x100007BC0, symSize: 0x2C }
  - { offsetInCU: 0x11BD5, offset: 0x11BD5, size: 0x8, addend: 0x0, symName: __ZNSt3__19allocatorINS_4pairIiiEEEC2B7v160006Ev, symObjAddr: 0x4144, symBinAddr: 0x100007BEC, symSize: 0x2C }
  - { offsetInCU: 0x11BFF, offset: 0x11BFF, size: 0x8, addend: 0x0, symName: __ZNSt3__116__non_trivial_ifILb1ENS_9allocatorINS_4pairIiiEEEEEC2B7v160006Ev, symObjAddr: 0x4170, symBinAddr: 0x100007C18, symSize: 0x14 }
  - { offsetInCU: 0x11C29, offset: 0x11C29, size: 0x8, addend: 0x0, symName: __ZNKSt3__16vectorINS_5tupleIJiiiEEENS_9allocatorIS2_EEE5emptyB7v160006Ev, symObjAddr: 0x4184, symBinAddr: 0x100007C2C, symSize: 0x28 }
  - { offsetInCU: 0x11C4F, offset: 0x11C4F, size: 0x8, addend: 0x0, symName: __ZNKSt3__16vectorINS_5tupleIJiiiEEENS_9allocatorIS2_EEE5frontB7v160006Ev, symObjAddr: 0x41AC, symBinAddr: 0x100007C54, symSize: 0x18 }
  - { offsetInCU: 0x11C75, offset: 0x11C75, size: 0x8, addend: 0x0, symName: __ZNSt3__16vectorINS_5tupleIJiiiEEENS_9allocatorIS2_EEE8pop_backEv, symObjAddr: 0x421C, symBinAddr: 0x100007CC4, symSize: 0x2C }
  - { offsetInCU: 0x11C9D, offset: 0x11C9D, size: 0x8, addend: 0x0, symName: __ZNSt3__111__wrap_iterIPNS_5tupleIJiiiEEEEppB7v160006Ev, symObjAddr: 0x4508, symBinAddr: 0x100007FB0, symSize: 0x20 }
  - { offsetInCU: 0x11CC3, offset: 0x11CC3, size: 0x8, addend: 0x0, symName: __ZNSt3__16vectorINS_5tupleIJiiiEEENS_9allocatorIS2_EEE17__destruct_at_endB7v160006EPS2_, symObjAddr: 0x4528, symBinAddr: 0x100007FD0, symSize: 0x60 }
  - { offsetInCU: 0x11D07, offset: 0x11D07, size: 0x8, addend: 0x0, symName: __ZNSt3__16vectorINS_5tupleIJiiiEEENS_9allocatorIS2_EEE27__invalidate_iterators_pastB7v160006EPS2_, symObjAddr: 0x4588, symBinAddr: 0x100008030, symSize: 0x14 }
  - { offsetInCU: 0x11D3E, offset: 0x11D3E, size: 0x8, addend: 0x0, symName: __ZNKSt3__16vectorINS_5tupleIJiiiEEENS_9allocatorIS2_EEE17__annotate_shrinkB7v160006Em, symObjAddr: 0x459C, symBinAddr: 0x100008044, symSize: 0xD0 }
  - { offsetInCU: 0x11D73, offset: 0x11D73, size: 0x8, addend: 0x0, symName: __ZNSt3__15dequeINS_4pairIiiEENS_9allocatorIS2_EEE9push_backEOS2_, symObjAddr: 0x466C, symBinAddr: 0x100008114, symSize: 0xA0 }
  - { offsetInCU: 0x11DB9, offset: 0x11DB9, size: 0x8, addend: 0x0, symName: __ZNKSt3__15dequeINS_4pairIiiEENS_9allocatorIS2_EEE12__back_spareB7v160006Ev, symObjAddr: 0x470C, symBinAddr: 0x1000081B4, symSize: 0x54 }
  - { offsetInCU: 0x11DDF, offset: 0x11DDF, size: 0x8, addend: 0x0, symName: __ZNSt3__15dequeINS_4pairIiiEENS_9allocatorIS2_EEE19__add_back_capacityEv, symObjAddr: 0x4760, symBinAddr: 0x100008208, symSize: 0x314 }
  - { offsetInCU: 0x11E94, offset: 0x11E94, size: 0x8, addend: 0x0, symName: __ZNSt3__116allocator_traitsINS_9allocatorINS_4pairIiiEEEEE9constructB7v160006IS3_JS3_EvEEvRS4_PT_DpOT0_, symObjAddr: 0x4A74, symBinAddr: 0x10000851C, symSize: 0x34 }
  - { offsetInCU: 0x11EEB, offset: 0x11EEB, size: 0x8, addend: 0x0, symName: __ZNKSt3__15dequeINS_4pairIiiEENS_9allocatorIS2_EEE10__capacityB7v160006Ev, symObjAddr: 0x4AA8, symBinAddr: 0x100008550, symSize: 0x60 }
  - { offsetInCU: 0x11F11, offset: 0x11F11, size: 0x8, addend: 0x0, symName: __ZNKSt3__15dequeINS_4pairIiiEENS_9allocatorIS2_EEE13__front_spareB7v160006Ev, symObjAddr: 0x4B08, symBinAddr: 0x1000085B0, symSize: 0x18 }
  - { offsetInCU: 0x11F37, offset: 0x11F37, size: 0x8, addend: 0x0, symName: __ZNSt3__114__split_bufferIPNS_4pairIiiEENS_9allocatorIS3_EEE9push_backB7v160006ERKS3_, symObjAddr: 0x4B20, symBinAddr: 0x1000085C8, symSize: 0x260 }
  - { offsetInCU: 0x11FAF, offset: 0x11FAF, size: 0x8, addend: 0x0, symName: __ZNKSt3__114__split_bufferIPNS_4pairIiiEENS_9allocatorIS3_EEE12__back_spareB7v160006Ev, symObjAddr: 0x4D80, symBinAddr: 0x100008828, symSize: 0x40 }
  - { offsetInCU: 0x11FD5, offset: 0x11FD5, size: 0x8, addend: 0x0, symName: __ZNSt3__114__split_bufferIPNS_4pairIiiEENS_9allocatorIS3_EEE9push_backEOS3_, symObjAddr: 0x4DC0, symBinAddr: 0x100008868, symSize: 0x260 }
  - { offsetInCU: 0x1204D, offset: 0x1204D, size: 0x8, addend: 0x0, symName: __ZNSt3__116allocator_traitsINS_9allocatorINS_4pairIiiEEEEE8allocateB7v160006ERS4_m, symObjAddr: 0x5020, symBinAddr: 0x100008AC8, symSize: 0x2C }
  - { offsetInCU: 0x12080, offset: 0x12080, size: 0x8, addend: 0x0, symName: __ZNSt3__114__split_bufferIPNS_4pairIiiEENS_9allocatorIS3_EEE10push_frontEOS3_, symObjAddr: 0x504C, symBinAddr: 0x100008AF4, symSize: 0x25C }
  - { offsetInCU: 0x120F8, offset: 0x120F8, size: 0x8, addend: 0x0, symName: __ZNSt3__114__split_bufferIPNS_4pairIiiEERNS_9allocatorIS3_EEEC1EmmS6_, symObjAddr: 0x52A8, symBinAddr: 0x100008D50, symSize: 0x44 }
  - { offsetInCU: 0x12153, offset: 0x12153, size: 0x8, addend: 0x0, symName: __ZNSt3__122__allocator_destructorINS_9allocatorINS_4pairIiiEEEEEC1B7v160006ERS4_m, symObjAddr: 0x52EC, symBinAddr: 0x100008D94, symSize: 0x3C }
  - { offsetInCU: 0x1221E, offset: 0x1221E, size: 0x8, addend: 0x0, symName: __ZNSt3__110unique_ptrIPNS_4pairIiiEENS_22__allocator_destructorINS_9allocatorIS2_EEEEEC1B7v160006ILb1EvEES3_NS_16__dependent_typeINS_27__unique_ptr_deleter_sfinaeIS7_EEXT_EE20__good_rval_ref_typeE, symObjAddr: 0x5328, symBinAddr: 0x100008DD0, symSize: 0x3C }
  - { offsetInCU: 0x1226F, offset: 0x1226F, size: 0x8, addend: 0x0, symName: __ZNSt3__114__split_bufferIPNS_4pairIiiEERNS_9allocatorIS3_EEE9push_backEOS3_, symObjAddr: 0x5364, symBinAddr: 0x100008E0C, symSize: 0x260 }
  - { offsetInCU: 0x122E7, offset: 0x122E7, size: 0x8, addend: 0x0, symName: __ZNKSt3__110unique_ptrIPNS_4pairIiiEENS_22__allocator_destructorINS_9allocatorIS2_EEEEE3getB7v160006Ev, symObjAddr: 0x55C4, symBinAddr: 0x10000906C, symSize: 0x28 }
  - { offsetInCU: 0x1230D, offset: 0x1230D, size: 0x8, addend: 0x0, symName: __ZNSt3__110unique_ptrIPNS_4pairIiiEENS_22__allocator_destructorINS_9allocatorIS2_EEEEE7releaseB7v160006Ev, symObjAddr: 0x55EC, symBinAddr: 0x100009094, symSize: 0x44 }
  - { offsetInCU: 0x12342, offset: 0x12342, size: 0x8, addend: 0x0, symName: __ZNSt3__114__split_bufferIPNS_4pairIiiEERNS_9allocatorIS3_EEE10push_frontERKS3_, symObjAddr: 0x5630, symBinAddr: 0x1000090D8, symSize: 0x25C }
  - { offsetInCU: 0x123BA, offset: 0x123BA, size: 0x8, addend: 0x0, symName: __ZNSt3__114__split_bufferIPNS_4pairIiiEENS_9allocatorIS3_EEE9__end_capB7v160006Ev, symObjAddr: 0x58C8, symBinAddr: 0x100009370, symSize: 0x28 }
  - { offsetInCU: 0x123E0, offset: 0x123E0, size: 0x8, addend: 0x0, symName: __ZNSt3__114__split_bufferIPNS_4pairIiiEERNS_9allocatorIS3_EEE9__end_capB7v160006Ev, symObjAddr: 0x58F0, symBinAddr: 0x100009398, symSize: 0x28 }
  - { offsetInCU: 0x12406, offset: 0x12406, size: 0x8, addend: 0x0, symName: __ZNSt3__110unique_ptrIPNS_4pairIiiEENS_22__allocator_destructorINS_9allocatorIS2_EEEEED1B7v160006Ev, symObjAddr: 0x5918, symBinAddr: 0x1000093C0, symSize: 0x2C }
  - { offsetInCU: 0x12430, offset: 0x12430, size: 0x8, addend: 0x0, symName: __ZNSt3__114__split_bufferIPNS_4pairIiiEERNS_9allocatorIS3_EEED1Ev, symObjAddr: 0x5944, symBinAddr: 0x1000093EC, symSize: 0x2C }
  - { offsetInCU: 0x1245C, offset: 0x1245C, size: 0x8, addend: 0x0, symName: __ZNSt3__114__split_bufferIPNS_4pairIiiEERNS_9allocatorIS3_EEE18__construct_at_endINS_13move_iteratorIPS3_EEEENS_9enable_ifIXsr27__is_cpp17_forward_iteratorIT_EE5valueEvE4typeESD_SD_, symObjAddr: 0x59B0, symBinAddr: 0x100009458, symSize: 0xFC }
  - { offsetInCU: 0x124B8, offset: 0x124B8, size: 0x8, addend: 0x0, symName: __ZNSt3__113move_iteratorIPPNS_4pairIiiEEEC1B7v160006ES4_, symObjAddr: 0x5AAC, symBinAddr: 0x100009554, symSize: 0x34 }
  - { offsetInCU: 0x124F0, offset: 0x124F0, size: 0x8, addend: 0x0, symName: __ZNSt3__116allocator_traitsINS_9allocatorIPNS_4pairIiiEEEEE9constructB7v160006IS4_JRKS4_EvEEvRS5_PT_DpOT0_, symObjAddr: 0x5AE0, symBinAddr: 0x100009588, symSize: 0x34 }
  - { offsetInCU: 0x1256D, offset: 0x1256D, size: 0x8, addend: 0x0, symName: __ZNKSt3__114__move_trivialclB7v160006IPNS_4pairIiiEES4_Li0EEENS2_IPT_PT0_EES6_S6_S8_, symObjAddr: 0x5CB0, symBinAddr: 0x100009758, symSize: 0x48 }
  - { offsetInCU: 0x125DB, offset: 0x125DB, size: 0x8, addend: 0x0, symName: __ZNSt3__14pairIPPNS0_IiiEES3_EC1B7v160006IRS3_S3_LPv0EEEOT_OT0_, symObjAddr: 0x5E78, symBinAddr: 0x100009920, symSize: 0x3C }
  - { offsetInCU: 0x12639, offset: 0x12639, size: 0x8, addend: 0x0, symName: __ZNSt3__14pairIPPNS0_IiiEES3_EC2B7v160006IRS3_S3_LPv0EEEOT_OT0_, symObjAddr: 0x5EB4, symBinAddr: 0x10000995C, symSize: 0x34 }
  - { offsetInCU: 0x12697, offset: 0x12697, size: 0x8, addend: 0x0, symName: __ZNSt3__118__unwrap_iter_implIPPNS_4pairIiiEELb1EE8__unwrapB7v160006ES4_, symObjAddr: 0x5EE8, symBinAddr: 0x100009990, symSize: 0x24 }
  - { offsetInCU: 0x126BA, offset: 0x126BA, size: 0x8, addend: 0x0, symName: __ZNSt3__14pairIPPNS0_IiiEES3_EC1B7v160006IS3_S3_LPv0EEEOT_OT0_, symObjAddr: 0x5F0C, symBinAddr: 0x1000099B4, symSize: 0x3C }
  - { offsetInCU: 0x12718, offset: 0x12718, size: 0x8, addend: 0x0, symName: __ZNSt3__14pairIPPNS0_IiiEES3_EC2B7v160006IS3_S3_LPv0EEEOT_OT0_, symObjAddr: 0x5F48, symBinAddr: 0x1000099F0, symSize: 0x34 }
  - { offsetInCU: 0x12776, offset: 0x12776, size: 0x8, addend: 0x0, symName: __ZNSt3__118__unwrap_iter_implIPPNS_4pairIiiEELb1EE8__rewrapB7v160006ES4_S4_, symObjAddr: 0x5F7C, symBinAddr: 0x100009A24, symSize: 0x50 }
  - { offsetInCU: 0x127B1, offset: 0x127B1, size: 0x8, addend: 0x0, symName: __ZNSt3__114__split_bufferIPNS_4pairIiiEERNS_9allocatorIS3_EEE21_ConstructTransactionC1B7v160006EPPS3_m, symObjAddr: 0x6008, symBinAddr: 0x100009AB0, symSize: 0x3C }
  - { offsetInCU: 0x127F7, offset: 0x127F7, size: 0x8, addend: 0x0, symName: __ZNSt3__116allocator_traitsINS_9allocatorIPNS_4pairIiiEEEEE9constructB7v160006IS4_JS4_EvEEvRS5_PT_DpOT0_, symObjAddr: 0x6044, symBinAddr: 0x100009AEC, symSize: 0x34 }
  - { offsetInCU: 0x1284E, offset: 0x1284E, size: 0x8, addend: 0x0, symName: __ZNSt3__114__split_bufferIPNS_4pairIiiEERNS_9allocatorIS3_EEE7__allocB7v160006Ev, symObjAddr: 0x6078, symBinAddr: 0x100009B20, symSize: 0x28 }
  - { offsetInCU: 0x12874, offset: 0x12874, size: 0x8, addend: 0x0, symName: __ZNKSt3__113move_iteratorIPPNS_4pairIiiEEEdeB7v160006Ev, symObjAddr: 0x60A0, symBinAddr: 0x100009B48, symSize: 0x18 }
  - { offsetInCU: 0x1289A, offset: 0x1289A, size: 0x8, addend: 0x0, symName: __ZNSt3__113move_iteratorIPPNS_4pairIiiEEEppB7v160006Ev, symObjAddr: 0x60B8, symBinAddr: 0x100009B60, symSize: 0x20 }
  - { offsetInCU: 0x128C0, offset: 0x128C0, size: 0x8, addend: 0x0, symName: __ZNSt3__114__split_bufferIPNS_4pairIiiEERNS_9allocatorIS3_EEE21_ConstructTransactionD1B7v160006Ev, symObjAddr: 0x60D8, symBinAddr: 0x100009B80, symSize: 0x2C }
  - { offsetInCU: 0x128EA, offset: 0x128EA, size: 0x8, addend: 0x0, symName: __ZNKSt3__113move_iteratorIPPNS_4pairIiiEEE4baseB7v160006Ev, symObjAddr: 0x617C, symBinAddr: 0x100009C24, symSize: 0x18 }
  - { offsetInCU: 0x12910, offset: 0x12910, size: 0x8, addend: 0x0, symName: __ZNSt3__114__split_bufferIPNS_4pairIiiEERNS_9allocatorIS3_EEE21_ConstructTransactionC2B7v160006EPPS3_m, symObjAddr: 0x6194, symBinAddr: 0x100009C3C, symSize: 0x44 }
  - { offsetInCU: 0x12956, offset: 0x12956, size: 0x8, addend: 0x0, symName: __ZNSt3__19allocatorIPNS_4pairIiiEEE9constructB7v160006IS3_JS3_EEEvPT_DpOT0_, symObjAddr: 0x61D8, symBinAddr: 0x100009C80, symSize: 0x28 }
  - { offsetInCU: 0x129AC, offset: 0x129AC, size: 0x8, addend: 0x0, symName: __ZNSt3__117__compressed_pairIPPNS_4pairIiiEERNS_9allocatorIS3_EEE6secondB7v160006Ev, symObjAddr: 0x6200, symBinAddr: 0x100009CA8, symSize: 0x28 }
  - { offsetInCU: 0x129D2, offset: 0x129D2, size: 0x8, addend: 0x0, symName: __ZNSt3__122__compressed_pair_elemIRNS_9allocatorIPNS_4pairIiiEEEELi1ELb0EE5__getB7v160006Ev, symObjAddr: 0x6228, symBinAddr: 0x100009CD0, symSize: 0x18 }
  - { offsetInCU: 0x129F8, offset: 0x129F8, size: 0x8, addend: 0x0, symName: __ZNSt3__114__split_bufferIPNS_4pairIiiEERNS_9allocatorIS3_EEE21_ConstructTransactionD2B7v160006Ev, symObjAddr: 0x6240, symBinAddr: 0x100009CE8, symSize: 0x20 }
  - { offsetInCU: 0x12A22, offset: 0x12A22, size: 0x8, addend: 0x0, symName: __ZNSt3__113move_iteratorIPPNS_4pairIiiEEEC2B7v160006ES4_, symObjAddr: 0x6260, symBinAddr: 0x100009D08, symSize: 0x20 }
  - { offsetInCU: 0x12A5A, offset: 0x12A5A, size: 0x8, addend: 0x0, symName: __ZNSt3__19allocatorIPNS_4pairIiiEEE9constructB7v160006IS3_JRKS3_EEEvPT_DpOT0_, symObjAddr: 0x6280, symBinAddr: 0x100009D28, symSize: 0x28 }
  - { offsetInCU: 0x12AB0, offset: 0x12AB0, size: 0x8, addend: 0x0, symName: __ZNSt3__19allocatorINS_4pairIiiEEE8allocateB7v160006Em, symObjAddr: 0x62A8, symBinAddr: 0x100009D50, symSize: 0x58 }
  - { offsetInCU: 0x12AEF, offset: 0x12AEF, size: 0x8, addend: 0x0, symName: __ZNSt3__116allocator_traitsINS_9allocatorINS_4pairIiiEEEEE8max_sizeB7v160006IS4_vEEmRKS4_, symObjAddr: 0x6300, symBinAddr: 0x100009DA8, symSize: 0x24 }
  - { offsetInCU: 0x12B1D, offset: 0x12B1D, size: 0x8, addend: 0x0, symName: __ZNKSt3__19allocatorINS_4pairIiiEEE8max_sizeB7v160006Ev, symObjAddr: 0x6324, symBinAddr: 0x100009DCC, symSize: 0x14 }
  - { offsetInCU: 0x12B4D, offset: 0x12B4D, size: 0x8, addend: 0x0, symName: __ZNKSt3__123__move_backward_trivialclB7v160006IPNS_4pairIiiEES4_Li0EEENS2_IPT_PT0_EES6_S6_S8_, symObjAddr: 0x64B4, symBinAddr: 0x100009F5C, symSize: 0x48 }
  - { offsetInCU: 0x12BB5, offset: 0x12BB5, size: 0x8, addend: 0x0, symName: __ZNSt3__14pairIPPNS0_IiiEES3_EC1B7v160006IRS3_S6_LPv0EEEOT_OT0_, symObjAddr: 0x65C8, symBinAddr: 0x10000A070, symSize: 0x3C }
  - { offsetInCU: 0x12C13, offset: 0x12C13, size: 0x8, addend: 0x0, symName: __ZNSt3__14pairIPPNS0_IiiEES3_EC2B7v160006IRS3_S6_LPv0EEEOT_OT0_, symObjAddr: 0x6604, symBinAddr: 0x10000A0AC, symSize: 0x34 }
  - { offsetInCU: 0x12C71, offset: 0x12C71, size: 0x8, addend: 0x0, symName: __ZNSt3__114__split_bufferIPNS_4pairIiiEERNS_9allocatorIS3_EEEC2EmmS6_, symObjAddr: 0x6638, symBinAddr: 0x10000A0E0, symSize: 0xD4 }
  - { offsetInCU: 0x12CE4, offset: 0x12CE4, size: 0x8, addend: 0x0, symName: __ZNSt3__117__compressed_pairIPPNS_4pairIiiEERNS_9allocatorIS3_EEEC1B7v160006IDnS7_EEOT_OT0_, symObjAddr: 0x670C, symBinAddr: 0x10000A1B4, symSize: 0x3C }
  - { offsetInCU: 0x12D3C, offset: 0x12D3C, size: 0x8, addend: 0x0, symName: __ZNSt3__117__compressed_pairIPPNS_4pairIiiEERNS_9allocatorIS3_EEEC2B7v160006IDnS7_EEOT_OT0_, symObjAddr: 0x6788, symBinAddr: 0x10000A230, symSize: 0x48 }
  - { offsetInCU: 0x12D94, offset: 0x12D94, size: 0x8, addend: 0x0, symName: __ZNSt3__122__compressed_pair_elemIRNS_9allocatorIPNS_4pairIiiEEEELi1ELb0EEC2B7v160006IS6_vEEOT_, symObjAddr: 0x67D0, symBinAddr: 0x10000A278, symSize: 0x20 }
  - { offsetInCU: 0x12DD6, offset: 0x12DD6, size: 0x8, addend: 0x0, symName: __ZNSt3__19allocatorIPNS_4pairIiiEEE8allocateB7v160006Em, symObjAddr: 0x67F0, symBinAddr: 0x10000A298, symSize: 0x58 }
  - { offsetInCU: 0x12E15, offset: 0x12E15, size: 0x8, addend: 0x0, symName: __ZNSt3__116allocator_traitsINS_9allocatorIPNS_4pairIiiEEEEE8max_sizeB7v160006IS5_vEEmRKS5_, symObjAddr: 0x6848, symBinAddr: 0x10000A2F0, symSize: 0x24 }
  - { offsetInCU: 0x12E43, offset: 0x12E43, size: 0x8, addend: 0x0, symName: __ZNKSt3__19allocatorIPNS_4pairIiiEEE8max_sizeB7v160006Ev, symObjAddr: 0x686C, symBinAddr: 0x10000A314, symSize: 0x14 }
  - { offsetInCU: 0x12E69, offset: 0x12E69, size: 0x8, addend: 0x0, symName: __ZNSt3__122__allocator_destructorINS_9allocatorINS_4pairIiiEEEEEC2B7v160006ERS4_m, symObjAddr: 0x6880, symBinAddr: 0x10000A328, symSize: 0x2C }
  - { offsetInCU: 0x12EAF, offset: 0x12EAF, size: 0x8, addend: 0x0, symName: __ZNSt3__110unique_ptrIPNS_4pairIiiEENS_22__allocator_destructorINS_9allocatorIS2_EEEEEC2B7v160006ILb1EvEES3_NS_16__dependent_typeINS_27__unique_ptr_deleter_sfinaeIS7_EEXT_EE20__good_rval_ref_typeE, symObjAddr: 0x68AC, symBinAddr: 0x10000A354, symSize: 0x48 }
  - { offsetInCU: 0x12F00, offset: 0x12F00, size: 0x8, addend: 0x0, symName: __ZNSt3__117__compressed_pairIPNS_4pairIiiEENS_22__allocator_destructorINS_9allocatorIS2_EEEEEC1B7v160006IRS3_S7_EEOT_OT0_, symObjAddr: 0x68F4, symBinAddr: 0x10000A39C, symSize: 0x3C }
  - { offsetInCU: 0x12F58, offset: 0x12F58, size: 0x8, addend: 0x0, symName: __ZNSt3__117__compressed_pairIPNS_4pairIiiEENS_22__allocator_destructorINS_9allocatorIS2_EEEEEC2B7v160006IRS3_S7_EEOT_OT0_, symObjAddr: 0x6930, symBinAddr: 0x10000A3D8, symSize: 0x48 }
  - { offsetInCU: 0x12FB0, offset: 0x12FB0, size: 0x8, addend: 0x0, symName: __ZNSt3__122__compressed_pair_elemIPNS_4pairIiiEELi0ELb0EEC2B7v160006IRS3_vEEOT_, symObjAddr: 0x6978, symBinAddr: 0x10000A420, symSize: 0x24 }
  - { offsetInCU: 0x12FF2, offset: 0x12FF2, size: 0x8, addend: 0x0, symName: __ZNSt3__122__compressed_pair_elemINS_22__allocator_destructorINS_9allocatorINS_4pairIiiEEEEEELi1ELb0EEC2B7v160006IS6_vEEOT_, symObjAddr: 0x699C, symBinAddr: 0x10000A444, symSize: 0x24 }
  - { offsetInCU: 0x13034, offset: 0x13034, size: 0x8, addend: 0x0, symName: __ZNKSt3__117__compressed_pairIPNS_4pairIiiEENS_22__allocator_destructorINS_9allocatorIS2_EEEEE5firstB7v160006Ev, symObjAddr: 0x69C0, symBinAddr: 0x10000A468, symSize: 0x24 }
  - { offsetInCU: 0x1305A, offset: 0x1305A, size: 0x8, addend: 0x0, symName: __ZNKSt3__122__compressed_pair_elemIPNS_4pairIiiEELi0ELb0EE5__getB7v160006Ev, symObjAddr: 0x69E4, symBinAddr: 0x10000A48C, symSize: 0x14 }
  - { offsetInCU: 0x13080, offset: 0x13080, size: 0x8, addend: 0x0, symName: __ZNSt3__117__compressed_pairIPNS_4pairIiiEENS_22__allocator_destructorINS_9allocatorIS2_EEEEE5firstB7v160006Ev, symObjAddr: 0x69F8, symBinAddr: 0x10000A4A0, symSize: 0x24 }
  - { offsetInCU: 0x130A6, offset: 0x130A6, size: 0x8, addend: 0x0, symName: __ZNSt3__122__compressed_pair_elemIPNS_4pairIiiEELi0ELb0EE5__getB7v160006Ev, symObjAddr: 0x6A1C, symBinAddr: 0x10000A4C4, symSize: 0x14 }
  - { offsetInCU: 0x130CC, offset: 0x130CC, size: 0x8, addend: 0x0, symName: __ZNSt3__117__compressed_pairIPPNS_4pairIiiEENS_9allocatorIS3_EEE5firstB7v160006Ev, symObjAddr: 0x6A30, symBinAddr: 0x10000A4D8, symSize: 0x24 }
  - { offsetInCU: 0x130F2, offset: 0x130F2, size: 0x8, addend: 0x0, symName: __ZNSt3__122__compressed_pair_elemIPPNS_4pairIiiEELi0ELb0EE5__getB7v160006Ev, symObjAddr: 0x6A54, symBinAddr: 0x10000A4FC, symSize: 0x14 }
  - { offsetInCU: 0x13118, offset: 0x13118, size: 0x8, addend: 0x0, symName: __ZNSt3__117__compressed_pairIPPNS_4pairIiiEERNS_9allocatorIS3_EEE5firstB7v160006Ev, symObjAddr: 0x6A68, symBinAddr: 0x10000A510, symSize: 0x24 }
  - { offsetInCU: 0x1313E, offset: 0x1313E, size: 0x8, addend: 0x0, symName: __ZNSt3__110unique_ptrIPNS_4pairIiiEENS_22__allocator_destructorINS_9allocatorIS2_EEEEED2B7v160006Ev, symObjAddr: 0x6A8C, symBinAddr: 0x10000A534, symSize: 0x30 }
  - { offsetInCU: 0x13168, offset: 0x13168, size: 0x8, addend: 0x0, symName: __ZNSt3__110unique_ptrIPNS_4pairIiiEENS_22__allocator_destructorINS_9allocatorIS2_EEEEE5resetB7v160006ES3_, symObjAddr: 0x6ABC, symBinAddr: 0x10000A564, symSize: 0x78 }
  - { offsetInCU: 0x131AC, offset: 0x131AC, size: 0x8, addend: 0x0, symName: __ZNSt3__117__compressed_pairIPNS_4pairIiiEENS_22__allocator_destructorINS_9allocatorIS2_EEEEE6secondB7v160006Ev, symObjAddr: 0x6B34, symBinAddr: 0x10000A5DC, symSize: 0x28 }
  - { offsetInCU: 0x131D2, offset: 0x131D2, size: 0x8, addend: 0x0, symName: __ZNSt3__122__allocator_destructorINS_9allocatorINS_4pairIiiEEEEEclB7v160006EPS3_, symObjAddr: 0x6B5C, symBinAddr: 0x10000A604, symSize: 0x34 }
  - { offsetInCU: 0x13206, offset: 0x13206, size: 0x8, addend: 0x0, symName: __ZNSt3__122__compressed_pair_elemINS_22__allocator_destructorINS_9allocatorINS_4pairIiiEEEEEELi1ELb0EE5__getB7v160006Ev, symObjAddr: 0x6B90, symBinAddr: 0x10000A638, symSize: 0x14 }
  - { offsetInCU: 0x1322C, offset: 0x1322C, size: 0x8, addend: 0x0, symName: __ZNSt3__114__split_bufferIPNS_4pairIiiEERNS_9allocatorIS3_EEED2Ev, symObjAddr: 0x6BA4, symBinAddr: 0x10000A64C, symSize: 0x8C }
  - { offsetInCU: 0x13258, offset: 0x13258, size: 0x8, addend: 0x0, symName: __ZNSt3__114__split_bufferIPNS_4pairIiiEERNS_9allocatorIS3_EEE5clearB7v160006Ev, symObjAddr: 0x6C30, symBinAddr: 0x10000A6D8, symSize: 0x28 }
  - { offsetInCU: 0x1327E, offset: 0x1327E, size: 0x8, addend: 0x0, symName: __ZNKSt3__114__split_bufferIPNS_4pairIiiEERNS_9allocatorIS3_EEE8capacityB7v160006Ev, symObjAddr: 0x6C58, symBinAddr: 0x10000A700, symSize: 0x40 }
  - { offsetInCU: 0x132A4, offset: 0x132A4, size: 0x8, addend: 0x0, symName: __ZNSt3__114__split_bufferIPNS_4pairIiiEERNS_9allocatorIS3_EEE17__destruct_at_endB7v160006EPS3_, symObjAddr: 0x6C98, symBinAddr: 0x10000A740, symSize: 0x2C }
  - { offsetInCU: 0x132D8, offset: 0x132D8, size: 0x8, addend: 0x0, symName: __ZNSt3__114__split_bufferIPNS_4pairIiiEERNS_9allocatorIS3_EEE17__destruct_at_endB7v160006EPS3_NS_17integral_constantIbLb0EEE, symObjAddr: 0x6CC4, symBinAddr: 0x10000A76C, symSize: 0x80 }
  - { offsetInCU: 0x13318, offset: 0x13318, size: 0x8, addend: 0x0, symName: __ZNKSt3__114__split_bufferIPNS_4pairIiiEERNS_9allocatorIS3_EEE9__end_capB7v160006Ev, symObjAddr: 0x6D44, symBinAddr: 0x10000A7EC, symSize: 0x28 }
  - { offsetInCU: 0x1333E, offset: 0x1333E, size: 0x8, addend: 0x0, symName: __ZNKSt3__117__compressed_pairIPPNS_4pairIiiEERNS_9allocatorIS3_EEE5firstB7v160006Ev, symObjAddr: 0x6D6C, symBinAddr: 0x10000A814, symSize: 0x24 }
  - { offsetInCU: 0x13364, offset: 0x13364, size: 0x8, addend: 0x0, symName: __ZNSt3__19allocatorINS_4pairIiiEEE9constructB7v160006IS2_JS2_EEEvPT_DpOT0_, symObjAddr: 0x6D90, symBinAddr: 0x10000A838, symSize: 0x28 }
  - { offsetInCU: 0x133BA, offset: 0x133BA, size: 0x8, addend: 0x0, symName: __ZNKSt3__15dequeINS_4pairIiiEENS_9allocatorIS2_EEE5emptyB7v160006Ev, symObjAddr: 0x6DB8, symBinAddr: 0x10000A860, symSize: 0x30 }
  - { offsetInCU: 0x133E0, offset: 0x133E0, size: 0x8, addend: 0x0, symName: __ZNSt3__15dequeINS_4pairIiiEENS_9allocatorIS2_EEE5frontEv, symObjAddr: 0x6DE8, symBinAddr: 0x10000A890, symSize: 0x50 }
  - { offsetInCU: 0x13408, offset: 0x13408, size: 0x8, addend: 0x0, symName: __ZNSt3__15dequeINS_4pairIiiEENS_9allocatorIS2_EEE9pop_frontEv, symObjAddr: 0x6E38, symBinAddr: 0x10000A8E0, symSize: 0xAC }
  - { offsetInCU: 0x1343F, offset: 0x1343F, size: 0x8, addend: 0x0, symName: __ZNSt3__15dequeINS_4pairIiiEENS_9allocatorIS2_EEE26__maybe_remove_front_spareB7v160006Eb, symObjAddr: 0x6EF8, symBinAddr: 0x10000A9A0, symSize: 0xDC }
  - { offsetInCU: 0x13474, offset: 0x13474, size: 0x8, addend: 0x0, symName: __ZNKSt3__15dequeINS_4pairIiiEENS_9allocatorIS2_EEE20__front_spare_blocksB7v160006Ev, symObjAddr: 0x6FD4, symBinAddr: 0x10000AA7C, symSize: 0x2C }
  - { offsetInCU: 0x134BB, offset: 0x134BB, size: 0x8, addend: 0x0, symName: __ZNKSt3__113basic_ostreamIcNS_11char_traitsIcEEE6sentrycvbB7v160006Ev, symObjAddr: 0x71EC, symBinAddr: 0x10000AC94, symSize: 0x1C }
  - { offsetInCU: 0x134E1, offset: 0x134E1, size: 0x8, addend: 0x0, symName: __ZNSt3__119ostreambuf_iteratorIcNS_11char_traitsIcEEEC1B7v160006ERNS_13basic_ostreamIcS2_EE, symObjAddr: 0x7448, symBinAddr: 0x10000AEF0, symSize: 0x34 }
  - { offsetInCU: 0x13519, offset: 0x13519, size: 0x8, addend: 0x0, symName: __ZNKSt3__18ios_base5flagsB7v160006Ev, symObjAddr: 0x747C, symBinAddr: 0x10000AF24, symSize: 0x18 }
  - { offsetInCU: 0x13541, offset: 0x13541, size: 0x8, addend: 0x0, symName: __ZNKSt3__19basic_iosIcNS_11char_traitsIcEEE4fillB7v160006Ev, symObjAddr: 0x7494, symBinAddr: 0x10000AF3C, symSize: 0x64 }
  - { offsetInCU: 0x13569, offset: 0x13569, size: 0x8, addend: 0x0, symName: __ZNKSt3__119ostreambuf_iteratorIcNS_11char_traitsIcEEE6failedB7v160006Ev, symObjAddr: 0x74F8, symBinAddr: 0x10000AFA0, symSize: 0x24 }
  - { offsetInCU: 0x1358F, offset: 0x1358F, size: 0x8, addend: 0x0, symName: __ZNSt3__19basic_iosIcNS_11char_traitsIcEEE8setstateB7v160006Ej, symObjAddr: 0x751C, symBinAddr: 0x10000AFC4, symSize: 0x2C }
  - { offsetInCU: 0x135C4, offset: 0x135C4, size: 0x8, addend: 0x0, symName: __ZNKSt3__18ios_base5widthB7v160006Ev, symObjAddr: 0x7548, symBinAddr: 0x10000AFF0, symSize: 0x18 }
  - { offsetInCU: 0x135EC, offset: 0x135EC, size: 0x8, addend: 0x0, symName: __ZNSt3__115basic_streambufIcNS_11char_traitsIcEEE5sputnB7v160006EPKcl, symObjAddr: 0x7560, symBinAddr: 0x10000B008, symSize: 0x3C }
  - { offsetInCU: 0x1362E, offset: 0x1362E, size: 0x8, addend: 0x0, symName: __ZNSt3__112basic_stringIcNS_11char_traitsIcEENS_9allocatorIcEEEC1B7v160006Emc, symObjAddr: 0x759C, symBinAddr: 0x10000B044, symSize: 0x3C }
  - { offsetInCU: 0x13676, offset: 0x13676, size: 0x8, addend: 0x0, symName: __ZNKSt3__112basic_stringIcNS_11char_traitsIcEENS_9allocatorIcEEE4dataB7v160006Ev, symObjAddr: 0x75D8, symBinAddr: 0x10000B080, symSize: 0x28 }
  - { offsetInCU: 0x1369C, offset: 0x1369C, size: 0x8, addend: 0x0, symName: __ZNSt3__18ios_base5widthB7v160006El, symObjAddr: 0x7600, symBinAddr: 0x10000B0A8, symSize: 0x2C }
  - { offsetInCU: 0x136E2, offset: 0x136E2, size: 0x8, addend: 0x0, symName: __ZNSt3__112basic_stringIcNS_11char_traitsIcEENS_9allocatorIcEEEC2B7v160006Emc, symObjAddr: 0x762C, symBinAddr: 0x10000B0D4, symSize: 0x54 }
  - { offsetInCU: 0x1372A, offset: 0x1372A, size: 0x8, addend: 0x0, symName: __ZNSt3__117__compressed_pairINS_12basic_stringIcNS_11char_traitsIcEENS_9allocatorIcEEE5__repES5_EC1B7v160006INS_18__default_init_tagESA_EEOT_OT0_, symObjAddr: 0x7680, symBinAddr: 0x10000B128, symSize: 0x3C }
  - { offsetInCU: 0x13782, offset: 0x13782, size: 0x8, addend: 0x0, symName: __ZNSt3__117__compressed_pairINS_12basic_stringIcNS_11char_traitsIcEENS_9allocatorIcEEE5__repES5_EC2B7v160006INS_18__default_init_tagESA_EEOT_OT0_, symObjAddr: 0x76CC, symBinAddr: 0x10000B174, symSize: 0x3C }
  - { offsetInCU: 0x137DA, offset: 0x137DA, size: 0x8, addend: 0x0, symName: __ZNSt3__122__compressed_pair_elemINS_12basic_stringIcNS_11char_traitsIcEENS_9allocatorIcEEE5__repELi0ELb0EEC2B7v160006ENS_18__default_init_tagE, symObjAddr: 0x7708, symBinAddr: 0x10000B1B0, symSize: 0x14 }
  - { offsetInCU: 0x1380E, offset: 0x1380E, size: 0x8, addend: 0x0, symName: __ZNSt3__122__compressed_pair_elemINS_9allocatorIcEELi1ELb1EEC2B7v160006ENS_18__default_init_tagE, symObjAddr: 0x771C, symBinAddr: 0x10000B1C4, symSize: 0x2C }
  - { offsetInCU: 0x13842, offset: 0x13842, size: 0x8, addend: 0x0, symName: __ZNSt3__19allocatorIcEC2B7v160006Ev, symObjAddr: 0x7748, symBinAddr: 0x10000B1F0, symSize: 0x2C }
  - { offsetInCU: 0x1386C, offset: 0x1386C, size: 0x8, addend: 0x0, symName: __ZNSt3__116__non_trivial_ifILb1ENS_9allocatorIcEEEC2B7v160006Ev, symObjAddr: 0x7774, symBinAddr: 0x10000B21C, symSize: 0x14 }
  - { offsetInCU: 0x13896, offset: 0x13896, size: 0x8, addend: 0x0, symName: __ZNKSt3__112basic_stringIcNS_11char_traitsIcEENS_9allocatorIcEEE13__get_pointerB7v160006Ev, symObjAddr: 0x779C, symBinAddr: 0x10000B244, symSize: 0x54 }
  - { offsetInCU: 0x138BC, offset: 0x138BC, size: 0x8, addend: 0x0, symName: __ZNKSt3__112basic_stringIcNS_11char_traitsIcEENS_9allocatorIcEEE9__is_longB7v160006Ev, symObjAddr: 0x77F0, symBinAddr: 0x10000B298, symSize: 0x38 }
  - { offsetInCU: 0x138E2, offset: 0x138E2, size: 0x8, addend: 0x0, symName: __ZNKSt3__112basic_stringIcNS_11char_traitsIcEENS_9allocatorIcEEE18__get_long_pointerB7v160006Ev, symObjAddr: 0x7828, symBinAddr: 0x10000B2D0, symSize: 0x28 }
  - { offsetInCU: 0x13908, offset: 0x13908, size: 0x8, addend: 0x0, symName: __ZNKSt3__112basic_stringIcNS_11char_traitsIcEENS_9allocatorIcEEE19__get_short_pointerB7v160006Ev, symObjAddr: 0x7850, symBinAddr: 0x10000B2F8, symSize: 0x28 }
  - { offsetInCU: 0x1392E, offset: 0x1392E, size: 0x8, addend: 0x0, symName: __ZNKSt3__117__compressed_pairINS_12basic_stringIcNS_11char_traitsIcEENS_9allocatorIcEEE5__repES5_E5firstB7v160006Ev, symObjAddr: 0x7878, symBinAddr: 0x10000B320, symSize: 0x24 }
  - { offsetInCU: 0x13954, offset: 0x13954, size: 0x8, addend: 0x0, symName: __ZNKSt3__122__compressed_pair_elemINS_12basic_stringIcNS_11char_traitsIcEENS_9allocatorIcEEE5__repELi0ELb0EE5__getB7v160006Ev, symObjAddr: 0x789C, symBinAddr: 0x10000B344, symSize: 0x14 }
  - { offsetInCU: 0x1397A, offset: 0x1397A, size: 0x8, addend: 0x0, symName: __ZNSt3__114pointer_traitsIPKcE10pointer_toB7v160006ERS1_, symObjAddr: 0x78B0, symBinAddr: 0x10000B358, symSize: 0x14 }
  - { offsetInCU: 0x1399D, offset: 0x1399D, size: 0x8, addend: 0x0, symName: __ZNSt3__119ostreambuf_iteratorIcNS_11char_traitsIcEEEC2B7v160006ERNS_13basic_ostreamIcS2_EE, symObjAddr: 0x78C4, symBinAddr: 0x10000B36C, symSize: 0x54 }
  - { offsetInCU: 0x139D5, offset: 0x139D5, size: 0x8, addend: 0x0, symName: __ZNKSt3__19basic_iosIcNS_11char_traitsIcEEE5rdbufB7v160006Ev, symObjAddr: 0x7918, symBinAddr: 0x10000B3C0, symSize: 0x24 }
  - { offsetInCU: 0x139FD, offset: 0x139FD, size: 0x8, addend: 0x0, symName: __ZNKSt3__18ios_base5rdbufB7v160006Ev, symObjAddr: 0x793C, symBinAddr: 0x10000B3E4, symSize: 0x18 }
  - { offsetInCU: 0x13A23, offset: 0x13A23, size: 0x8, addend: 0x0, symName: __ZNSt3__111char_traitsIcE11eq_int_typeEii, symObjAddr: 0x7954, symBinAddr: 0x10000B3FC, symSize: 0x28 }
  - { offsetInCU: 0x13A54, offset: 0x13A54, size: 0x8, addend: 0x0, symName: __ZNSt3__111char_traitsIcE3eofEv, symObjAddr: 0x797C, symBinAddr: 0x10000B424, symSize: 0x8 }
  - { offsetInCU: 0x13A68, offset: 0x13A68, size: 0x8, addend: 0x0, symName: __ZNKSt3__19basic_iosIcNS_11char_traitsIcEEE5widenB7v160006Ec, symObjAddr: 0x7984, symBinAddr: 0x10000B42C, symSize: 0x84 }
  - { offsetInCU: 0x13AD6, offset: 0x13AD6, size: 0x8, addend: 0x0, symName: __ZNKSt3__15ctypeIcE5widenB7v160006Ec, symObjAddr: 0x7A34, symBinAddr: 0x10000B4DC, symSize: 0x38 }
  - { offsetInCU: 0x13B0B, offset: 0x13B0B, size: 0x8, addend: 0x0, symName: __ZNSt3__18ios_base8setstateB7v160006Ej, symObjAddr: 0x7A6C, symBinAddr: 0x10000B514, symSize: 0x34 }
...
