---
triple:          'arm64-apple-darwin'
binary-path:     '/Users/youjin/Documents/GitHub/BOJ/1744/1744'
relocations:
  - { offsetInCU: 0x2F22, offset: 0x2F22, size: 0x8, addend: 0x0, symName: __ZNSt3__111__introsortINS_17_ClassicAlgPolicyERNS_7greaterIvEEPiEEvT1_S6_T0_NS_15iterator_traitsIS6_E15difference_typeE, symObjAddr: 0x5A4, symBinAddr: 0x1000016B8, symSize: 0x6B8 }
  - { offsetInCU: 0x30A9, offset: 0x30A9, size: 0x8, addend: 0x0, symName: __ZNSt3__118__insertion_sort_3B7v160006INS_17_ClassicAlgPolicyERNS_7greaterIvEEPiEEvT1_S6_T0_, symObjAddr: 0xE5C, symBinAddr: 0x100001F70, symSize: 0x144 }
  - { offsetInCU: 0x317C, offset: 0x317C, size: 0x8, addend: 0x0, symName: __ZNSt3__111__sift_downB7v160006INS_17_ClassicAlgPolicyERNS_7greaterIvEEPiEEvT1_OT0_NS_15iterator_traitsIS6_E15difference_typeES6_, symObjAddr: 0x1958, symBinAddr: 0x100002A6C, symSize: 0x20C }
  - { offsetInCU: 0x3229, offset: 0x3229, size: 0x8, addend: 0x0, symName: __ZNSt3__117__floyd_sift_downB7v160006INS_17_ClassicAlgPolicyERNS_7greaterIvEEPiEET1_S6_OT0_NS_15iterator_traitsIS6_E15difference_typeE, symObjAddr: 0x1CE8, symBinAddr: 0x100002DFC, symSize: 0x100 }
  - { offsetInCU: 0x32C1, offset: 0x32C1, size: 0x8, addend: 0x0, symName: __ZNSt3__127__insertion_sort_incompleteIRNS_7greaterIvEEPiEEbT0_S5_T_, symObjAddr: 0x11CC, symBinAddr: 0x1000022E0, symSize: 0x310 }
  - { offsetInCU: 0x33C8, offset: 0x33C8, size: 0x8, addend: 0x0, symName: __ZNSt3__124__put_character_sequenceB7v160006IcNS_11char_traitsIcEEEERNS_13basic_ostreamIT_T0_EES7_PKS4_m, symObjAddr: 0x214C, symBinAddr: 0x100003260, symSize: 0x1EC }
  - { offsetInCU: 0x4D18, offset: 0x4D18, size: 0x8, addend: 0x0, symName: __ZNSt3__14sortB7v160006IPiNS_7greaterIvEEEEvT_S4_T0_, symObjAddr: 0x3D4, symBinAddr: 0x1000014E8, symSize: 0x30 }
  - { offsetInCU: 0x4D72, offset: 0x4D72, size: 0x8, addend: 0x0, symName: __ZNSt3__1lsB7v160006INS_11char_traitsIcEEEERNS_13basic_ostreamIcT_EES6_c, symObjAddr: 0x404, symBinAddr: 0x100001518, symSize: 0x34 }
  - { offsetInCU: 0x4DB8, offset: 0x4DB8, size: 0x8, addend: 0x0, symName: __ZNSt3__111__sort_implB7v160006INS_17_ClassicAlgPolicyEPiNS_7greaterIvEEEEvT0_S5_RT1_, symObjAddr: 0x438, symBinAddr: 0x10000154C, symSize: 0x64 }
  - { offsetInCU: 0x4E5F, offset: 0x4E5F, size: 0x8, addend: 0x0, symName: __ZNSt3__123__debug_randomize_rangeB7v160006INS_17_ClassicAlgPolicyEPiS2_EEvT0_T1_, symObjAddr: 0x49C, symBinAddr: 0x1000015B0, symSize: 0x14 }
  - { offsetInCU: 0x4EB0, offset: 0x4EB0, size: 0x8, addend: 0x0, symName: __ZNSt3__16__sortIRNS_7greaterIvEEPiEEvT0_S5_T_, symObjAddr: 0x4B0, symBinAddr: 0x1000015C4, symSize: 0x68 }
  - { offsetInCU: 0x4F40, offset: 0x4F40, size: 0x8, addend: 0x0, symName: __ZNSt3__113__unwrap_iterB7v160006IPiNS_18__unwrap_iter_implIS1_Lb1EEELi0EEEDTclsrT0_8__unwrapclsr3stdE7declvalIT_EEEES5_, symObjAddr: 0x518, symBinAddr: 0x10000162C, symSize: 0x24 }
  - { offsetInCU: 0x4F84, offset: 0x4F84, size: 0x8, addend: 0x0, symName: __ZNSt3__17__log2iB7v160006IlEET_S1_, symObjAddr: 0x53C, symBinAddr: 0x100001650, symSize: 0x54 }
  - { offsetInCU: 0x5030, offset: 0x5030, size: 0x8, addend: 0x0, symName: __ZNSt3__112__libcpp_clzB7v160006Em, symObjAddr: 0xC74, symBinAddr: 0x100001D88, symSize: 0x1C }
  - { offsetInCU: 0x50F6, offset: 0x50F6, size: 0x8, addend: 0x0, symName: __ZNSt3__124__sort3_maybe_branchlessB7v160006INS_17_ClassicAlgPolicyERNS_7greaterIvEEPiEENS_9enable_ifIXsr21__use_branchless_sortIT0_T1_EE5valueEvE4typeES8_S8_S8_S7_, symObjAddr: 0xCF8, symBinAddr: 0x100001E0C, symSize: 0x4C }
  - { offsetInCU: 0x5163, offset: 0x5163, size: 0x8, addend: 0x0, symName: __ZNSt3__124__sort4_maybe_branchlessB7v160006INS_17_ClassicAlgPolicyERNS_7greaterIvEEPiEENS_9enable_ifIXsr21__use_branchless_sortIT0_T1_EE5valueEvE4typeES8_S8_S8_S8_S7_, symObjAddr: 0xD44, symBinAddr: 0x100001E58, symSize: 0x7C }
  - { offsetInCU: 0x51E0, offset: 0x51E0, size: 0x8, addend: 0x0, symName: __ZNSt3__124__sort5_maybe_branchlessB7v160006INS_17_ClassicAlgPolicyERNS_7greaterIvEEPiEENS_9enable_ifIXsr21__use_branchless_sortIT0_T1_EE5valueEvE4typeES8_S8_S8_S8_S8_S7_, symObjAddr: 0xDC0, symBinAddr: 0x100001ED4, symSize: 0x9C }
  - { offsetInCU: 0x5270, offset: 0x5270, size: 0x8, addend: 0x0, symName: __ZNSt3__114__partial_sortB7v160006INS_17_ClassicAlgPolicyERNS_7greaterIvEEPiS5_EET1_S6_S6_T2_RT0_, symObjAddr: 0xFA0, symBinAddr: 0x1000020B4, symSize: 0x94 }
  - { offsetInCU: 0x52F8, offset: 0x52F8, size: 0x8, addend: 0x0, symName: __ZNSt3__119__sort5_wrap_policyB7v160006INS_17_ClassicAlgPolicyERNS_7greaterIvEEPiEEjT1_S6_S6_S6_S6_T0_, symObjAddr: 0x1034, symBinAddr: 0x100002148, symSize: 0x54 }
  - { offsetInCU: 0x539E, offset: 0x539E, size: 0x8, addend: 0x0, symName: __ZNSt3__17__sort3B7v160006INS_17_ClassicAlgPolicyERNS_7greaterIvEEPiEEjT1_S6_S6_T0_, symObjAddr: 0x1088, symBinAddr: 0x10000219C, symSize: 0x144 }
  - { offsetInCU: 0x541D, offset: 0x541D, size: 0x8, addend: 0x0, symName: __ZNSt3__19iter_swapB7v160006IPiS1_EEvT_T0_, symObjAddr: 0x14F4, symBinAddr: 0x100002608, symSize: 0x2C }
  - { offsetInCU: 0x5465, offset: 0x5465, size: 0x8, addend: 0x0, symName: __ZNSt3__14swapB7v160006IiEENS_9enable_ifIXaasr21is_move_constructibleIT_EE5valuesr18is_move_assignableIS2_EE5valueEvE4typeERS2_S5_, symObjAddr: 0x1520, symBinAddr: 0x100002634, symSize: 0x3C }
  - { offsetInCU: 0x54B6, offset: 0x54B6, size: 0x8, addend: 0x0, symName: __ZNSt3__111__cond_swapB7v160006IRNS_7greaterIvEEPiEEvT0_S5_T_, symObjAddr: 0x155C, symBinAddr: 0x100002670, symSize: 0xB8 }
  - { offsetInCU: 0x5533, offset: 0x5533, size: 0x8, addend: 0x0, symName: __ZNSt3__123__partially_sorted_swapB7v160006IRNS_7greaterIvEEPiEEvT0_S5_S5_T_, symObjAddr: 0x1614, symBinAddr: 0x100002728, symSize: 0x138 }
  - { offsetInCU: 0x55E2, offset: 0x55E2, size: 0x8, addend: 0x0, symName: __ZNSt3__119__partial_sort_implB7v160006INS_17_ClassicAlgPolicyERNS_7greaterIvEEPiS5_EET1_S6_S6_T2_OT0_, symObjAddr: 0x1790, symBinAddr: 0x1000028A4, symSize: 0x110 }
  - { offsetInCU: 0x5678, offset: 0x5678, size: 0x8, addend: 0x0, symName: __ZNSt3__111__make_heapB7v160006INS_17_ClassicAlgPolicyERNS_7greaterIvEEPiEEvT1_S6_OT0_, symObjAddr: 0x18A0, symBinAddr: 0x1000029B4, symSize: 0xB8 }
  - { offsetInCU: 0x571A, offset: 0x571A, size: 0x8, addend: 0x0, symName: __ZNSt3__111__sort_heapB7v160006INS_17_ClassicAlgPolicyERNS_7greaterIvEEPiEEvT1_S6_OT0_, symObjAddr: 0x1B64, symBinAddr: 0x100002C78, symSize: 0x90 }
  - { offsetInCU: 0x57AE, offset: 0x57AE, size: 0x8, addend: 0x0, symName: __ZNSt3__110__pop_heapB7v160006INS_17_ClassicAlgPolicyENS_7greaterIvEEPiEEvT1_S5_RT0_NS_15iterator_traitsIS5_E15difference_typeE, symObjAddr: 0x1BF4, symBinAddr: 0x100002D08, symSize: 0xF4 }
  - { offsetInCU: 0x585E, offset: 0x585E, size: 0x8, addend: 0x0, symName: __ZNSt3__19__sift_upB7v160006INS_17_ClassicAlgPolicyERNS_7greaterIvEEPiEEvT1_S6_OT0_NS_15iterator_traitsIS6_E15difference_typeE, symObjAddr: 0x1DE8, symBinAddr: 0x100002EFC, symSize: 0x11C }
  - { offsetInCU: 0x590E, offset: 0x590E, size: 0x8, addend: 0x0, symName: __ZNSt3__17__sort5IRNS_7greaterIvEEPiEEjT0_S5_S5_S5_S5_T_, symObjAddr: 0x1F04, symBinAddr: 0x100003018, symSize: 0x12C }
  - { offsetInCU: 0x59B9, offset: 0x59B9, size: 0x8, addend: 0x0, symName: __ZNSt3__17__sort4B7v160006INS_17_ClassicAlgPolicyERNS_7greaterIvEEPiEEjT1_S6_S6_S6_T0_, symObjAddr: 0x2030, symBinAddr: 0x100003144, symSize: 0xE4 }
  - { offsetInCU: 0x5A99, offset: 0x5A99, size: 0x8, addend: 0x0, symName: __ZNSt3__112__to_addressB7v160006IiEEPT_S2_, symObjAddr: 0x2138, symBinAddr: 0x10000324C, symSize: 0x14 }
  - { offsetInCU: 0x5ACE, offset: 0x5ACE, size: 0x8, addend: 0x0, symName: __ZNSt3__116__pad_and_outputB7v160006IcNS_11char_traitsIcEEEENS_19ostreambuf_iteratorIT_T0_EES6_PKS4_S8_S8_RNS_8ios_baseES4_, symObjAddr: 0x2354, symBinAddr: 0x100003468, symSize: 0x240 }
  - { offsetInCU: 0x5B9D, offset: 0x5B9D, size: 0x8, addend: 0x0, symName: __ZNSt3__119__debug_db_insert_cB7v160006INS_12basic_stringIcNS_11char_traitsIcEENS_9allocatorIcEEEEEEvPT_, symObjAddr: 0x2814, symBinAddr: 0x100003928, symSize: 0x10 }
  - { offsetInCU: 0x5BCE, offset: 0x5BCE, size: 0x8, addend: 0x0, symName: __ZNSt3__112__to_addressB7v160006IKcEEPT_S3_, symObjAddr: 0x28E0, symBinAddr: 0x1000039F4, symSize: 0x14 }
  - { offsetInCU: 0x5C36, offset: 0x5C36, size: 0x8, addend: 0x0, symName: __ZNSt3__19use_facetB7v160006INS_5ctypeIcEEEERKT_RKNS_6localeE, symObjAddr: 0x2B60, symBinAddr: 0x100003C74, symSize: 0x2C }
  - { offsetInCU: 0x8668, offset: 0x8668, size: 0x8, addend: 0x0, symName: _main, symObjAddr: 0x0, symBinAddr: 0x100001114, symSize: 0x3A8 }
  - { offsetInCU: 0x86E6, offset: 0x86E6, size: 0x8, addend: 0x0, symName: __ZNSt3__19basic_iosIcNS_11char_traitsIcEEE3tieB7v160006EPNS_13basic_ostreamIcS2_EE, symObjAddr: 0x3A8, symBinAddr: 0x1000014BC, symSize: 0x2C }
  - { offsetInCU: 0x8730, offset: 0x8730, size: 0x8, addend: 0x0, symName: __ZNSt3__116_UnwrapAlgPolicyIRNS_7greaterIvEEE10__get_compB7v160006ES3_, symObjAddr: 0x590, symBinAddr: 0x1000016A4, symSize: 0x14 }
  - { offsetInCU: 0x8762, offset: 0x8762, size: 0x8, addend: 0x0, symName: __ZNKSt3__17greaterIvEclB7v160006IRiS3_EEDTgtclsr3stdE7forwardIT_Efp_Eclsr3stdE7forwardIT0_Efp0_EEOS4_OS5_, symObjAddr: 0xC90, symBinAddr: 0x100001DA4, symSize: 0x34 }
  - { offsetInCU: 0x87BD, offset: 0x87BD, size: 0x8, addend: 0x0, symName: __ZNSt3__18_IterOpsINS_17_ClassicAlgPolicyEE9iter_swapB7v160006IRPiS5_EEvOT_OT0_, symObjAddr: 0xCC4, symBinAddr: 0x100001DD8, symSize: 0x34 }
  - { offsetInCU: 0x8805, offset: 0x8805, size: 0x8, addend: 0x0, symName: __ZNSt3__18_IterOpsINS_17_ClassicAlgPolicyEE11__iter_moveB7v160006IRPiEENS_9enable_ifIXsr12is_referenceIDTdeclsr3stdE7declvalIRT_EEEEE5valueEDTclsr3stdE4movedeclsr3stdE7declvalIS8_EEEEE4typeEOS7_, symObjAddr: 0x174C, symBinAddr: 0x100002860, symSize: 0x28 }
  - { offsetInCU: 0x8831, offset: 0x8831, size: 0x8, addend: 0x0, symName: __ZNSt3__18_IterOpsINS_17_ClassicAlgPolicyEE25__validate_iter_referenceB7v160006IRPiEEvv, symObjAddr: 0x1774, symBinAddr: 0x100002888, symSize: 0x4 }
  - { offsetInCU: 0x884F, offset: 0x884F, size: 0x8, addend: 0x0, symName: __ZNSt3__18_IterOpsINS_17_ClassicAlgPolicyEE4nextB7v160006IPiEET_S5_S5_, symObjAddr: 0x1778, symBinAddr: 0x10000288C, symSize: 0x18 }
  - { offsetInCU: 0x8886, offset: 0x8886, size: 0x8, addend: 0x0, symName: __ZNSt3__118__unwrap_iter_implIPiLb1EE8__unwrapB7v160006ES1_, symObjAddr: 0x2114, symBinAddr: 0x100003228, symSize: 0x24 }
  - { offsetInCU: 0x88C7, offset: 0x88C7, size: 0x8, addend: 0x0, symName: __ZNKSt3__113basic_ostreamIcNS_11char_traitsIcEEE6sentrycvbB7v160006Ev, symObjAddr: 0x2338, symBinAddr: 0x10000344C, symSize: 0x1C }
  - { offsetInCU: 0x88ED, offset: 0x88ED, size: 0x8, addend: 0x0, symName: __ZNSt3__119ostreambuf_iteratorIcNS_11char_traitsIcEEEC1B7v160006ERNS_13basic_ostreamIcS2_EE, symObjAddr: 0x2594, symBinAddr: 0x1000036A8, symSize: 0x34 }
  - { offsetInCU: 0x8925, offset: 0x8925, size: 0x8, addend: 0x0, symName: __ZNKSt3__18ios_base5flagsB7v160006Ev, symObjAddr: 0x25C8, symBinAddr: 0x1000036DC, symSize: 0x18 }
  - { offsetInCU: 0x894C, offset: 0x894C, size: 0x8, addend: 0x0, symName: __ZNKSt3__19basic_iosIcNS_11char_traitsIcEEE4fillB7v160006Ev, symObjAddr: 0x25E0, symBinAddr: 0x1000036F4, symSize: 0x64 }
  - { offsetInCU: 0x8974, offset: 0x8974, size: 0x8, addend: 0x0, symName: __ZNKSt3__119ostreambuf_iteratorIcNS_11char_traitsIcEEE6failedB7v160006Ev, symObjAddr: 0x2644, symBinAddr: 0x100003758, symSize: 0x24 }
  - { offsetInCU: 0x899A, offset: 0x899A, size: 0x8, addend: 0x0, symName: __ZNSt3__19basic_iosIcNS_11char_traitsIcEEE8setstateB7v160006Ej, symObjAddr: 0x2668, symBinAddr: 0x10000377C, symSize: 0x2C }
  - { offsetInCU: 0x89CF, offset: 0x89CF, size: 0x8, addend: 0x0, symName: __ZNKSt3__18ios_base5widthB7v160006Ev, symObjAddr: 0x26A0, symBinAddr: 0x1000037B4, symSize: 0x18 }
  - { offsetInCU: 0x89F6, offset: 0x89F6, size: 0x8, addend: 0x0, symName: __ZNSt3__115basic_streambufIcNS_11char_traitsIcEEE5sputnB7v160006EPKcl, symObjAddr: 0x26B8, symBinAddr: 0x1000037CC, symSize: 0x3C }
  - { offsetInCU: 0x8A38, offset: 0x8A38, size: 0x8, addend: 0x0, symName: __ZNSt3__112basic_stringIcNS_11char_traitsIcEENS_9allocatorIcEEEC1B7v160006Emc, symObjAddr: 0x26F4, symBinAddr: 0x100003808, symSize: 0x3C }
  - { offsetInCU: 0x8A80, offset: 0x8A80, size: 0x8, addend: 0x0, symName: __ZNKSt3__112basic_stringIcNS_11char_traitsIcEENS_9allocatorIcEEE4dataB7v160006Ev, symObjAddr: 0x2730, symBinAddr: 0x100003844, symSize: 0x28 }
  - { offsetInCU: 0x8AA6, offset: 0x8AA6, size: 0x8, addend: 0x0, symName: __ZNSt3__18ios_base5widthB7v160006El, symObjAddr: 0x2758, symBinAddr: 0x10000386C, symSize: 0x2C }
  - { offsetInCU: 0x8AEB, offset: 0x8AEB, size: 0x8, addend: 0x0, symName: __ZNSt3__112basic_stringIcNS_11char_traitsIcEENS_9allocatorIcEEEC2B7v160006Emc, symObjAddr: 0x2784, symBinAddr: 0x100003898, symSize: 0x54 }
  - { offsetInCU: 0x8B38, offset: 0x8B38, size: 0x8, addend: 0x0, symName: __ZNSt3__117__compressed_pairINS_12basic_stringIcNS_11char_traitsIcEENS_9allocatorIcEEE5__repES5_EC1B7v160006INS_18__default_init_tagESA_EEOT_OT0_, symObjAddr: 0x27D8, symBinAddr: 0x1000038EC, symSize: 0x3C }
  - { offsetInCU: 0x8B90, offset: 0x8B90, size: 0x8, addend: 0x0, symName: __ZNSt3__117__compressed_pairINS_12basic_stringIcNS_11char_traitsIcEENS_9allocatorIcEEE5__repES5_EC2B7v160006INS_18__default_init_tagESA_EEOT_OT0_, symObjAddr: 0x2824, symBinAddr: 0x100003938, symSize: 0x3C }
  - { offsetInCU: 0x8BE8, offset: 0x8BE8, size: 0x8, addend: 0x0, symName: __ZNSt3__122__compressed_pair_elemINS_12basic_stringIcNS_11char_traitsIcEENS_9allocatorIcEEE5__repELi0ELb0EEC2B7v160006ENS_18__default_init_tagE, symObjAddr: 0x2860, symBinAddr: 0x100003974, symSize: 0x14 }
  - { offsetInCU: 0x8C1D, offset: 0x8C1D, size: 0x8, addend: 0x0, symName: __ZNSt3__122__compressed_pair_elemINS_9allocatorIcEELi1ELb1EEC2B7v160006ENS_18__default_init_tagE, symObjAddr: 0x2874, symBinAddr: 0x100003988, symSize: 0x2C }
  - { offsetInCU: 0x8C52, offset: 0x8C52, size: 0x8, addend: 0x0, symName: __ZNSt3__19allocatorIcEC2B7v160006Ev, symObjAddr: 0x28A0, symBinAddr: 0x1000039B4, symSize: 0x2C }
  - { offsetInCU: 0x8C7C, offset: 0x8C7C, size: 0x8, addend: 0x0, symName: __ZNSt3__116__non_trivial_ifILb1ENS_9allocatorIcEEEC2B7v160006Ev, symObjAddr: 0x28CC, symBinAddr: 0x1000039E0, symSize: 0x14 }
  - { offsetInCU: 0x8CA6, offset: 0x8CA6, size: 0x8, addend: 0x0, symName: __ZNKSt3__112basic_stringIcNS_11char_traitsIcEENS_9allocatorIcEEE13__get_pointerB7v160006Ev, symObjAddr: 0x28F4, symBinAddr: 0x100003A08, symSize: 0x54 }
  - { offsetInCU: 0x8CCC, offset: 0x8CCC, size: 0x8, addend: 0x0, symName: __ZNKSt3__112basic_stringIcNS_11char_traitsIcEENS_9allocatorIcEEE9__is_longB7v160006Ev, symObjAddr: 0x2948, symBinAddr: 0x100003A5C, symSize: 0x38 }
  - { offsetInCU: 0x8CF2, offset: 0x8CF2, size: 0x8, addend: 0x0, symName: __ZNKSt3__112basic_stringIcNS_11char_traitsIcEENS_9allocatorIcEEE18__get_long_pointerB7v160006Ev, symObjAddr: 0x2980, symBinAddr: 0x100003A94, symSize: 0x28 }
  - { offsetInCU: 0x8D18, offset: 0x8D18, size: 0x8, addend: 0x0, symName: __ZNKSt3__112basic_stringIcNS_11char_traitsIcEENS_9allocatorIcEEE19__get_short_pointerB7v160006Ev, symObjAddr: 0x29A8, symBinAddr: 0x100003ABC, symSize: 0x28 }
  - { offsetInCU: 0x8D3E, offset: 0x8D3E, size: 0x8, addend: 0x0, symName: __ZNKSt3__117__compressed_pairINS_12basic_stringIcNS_11char_traitsIcEENS_9allocatorIcEEE5__repES5_E5firstB7v160006Ev, symObjAddr: 0x29D0, symBinAddr: 0x100003AE4, symSize: 0x24 }
  - { offsetInCU: 0x8D64, offset: 0x8D64, size: 0x8, addend: 0x0, symName: __ZNKSt3__122__compressed_pair_elemINS_12basic_stringIcNS_11char_traitsIcEENS_9allocatorIcEEE5__repELi0ELb0EE5__getB7v160006Ev, symObjAddr: 0x29F4, symBinAddr: 0x100003B08, symSize: 0x14 }
  - { offsetInCU: 0x8D8A, offset: 0x8D8A, size: 0x8, addend: 0x0, symName: __ZNSt3__114pointer_traitsIPKcE10pointer_toB7v160006ERS1_, symObjAddr: 0x2A08, symBinAddr: 0x100003B1C, symSize: 0x14 }
  - { offsetInCU: 0x8DAD, offset: 0x8DAD, size: 0x8, addend: 0x0, symName: __ZNSt3__119ostreambuf_iteratorIcNS_11char_traitsIcEEEC2B7v160006ERNS_13basic_ostreamIcS2_EE, symObjAddr: 0x2A1C, symBinAddr: 0x100003B30, symSize: 0x54 }
  - { offsetInCU: 0x8DE5, offset: 0x8DE5, size: 0x8, addend: 0x0, symName: __ZNKSt3__19basic_iosIcNS_11char_traitsIcEEE5rdbufB7v160006Ev, symObjAddr: 0x2A70, symBinAddr: 0x100003B84, symSize: 0x24 }
  - { offsetInCU: 0x8E0D, offset: 0x8E0D, size: 0x8, addend: 0x0, symName: __ZNKSt3__18ios_base5rdbufB7v160006Ev, symObjAddr: 0x2A94, symBinAddr: 0x100003BA8, symSize: 0x18 }
  - { offsetInCU: 0x8E33, offset: 0x8E33, size: 0x8, addend: 0x0, symName: __ZNSt3__111char_traitsIcE11eq_int_typeEii, symObjAddr: 0x2AAC, symBinAddr: 0x100003BC0, symSize: 0x28 }
  - { offsetInCU: 0x8E64, offset: 0x8E64, size: 0x8, addend: 0x0, symName: __ZNSt3__111char_traitsIcE3eofEv, symObjAddr: 0x2AD4, symBinAddr: 0x100003BE8, symSize: 0x8 }
  - { offsetInCU: 0x8E78, offset: 0x8E78, size: 0x8, addend: 0x0, symName: __ZNKSt3__19basic_iosIcNS_11char_traitsIcEEE5widenB7v160006Ec, symObjAddr: 0x2ADC, symBinAddr: 0x100003BF0, symSize: 0x84 }
  - { offsetInCU: 0x8EE6, offset: 0x8EE6, size: 0x8, addend: 0x0, symName: __ZNKSt3__15ctypeIcE5widenB7v160006Ec, symObjAddr: 0x2B8C, symBinAddr: 0x100003CA0, symSize: 0x38 }
  - { offsetInCU: 0x8F1B, offset: 0x8F1B, size: 0x8, addend: 0x0, symName: __ZNSt3__18ios_base8setstateB7v160006Ej, symObjAddr: 0x2BC4, symBinAddr: 0x100003CD8, symSize: 0x34 }
...
